(lp0
S'gaylord focker'
p1
aS'Hallo'
p2
aS'third comment'
p3
aS"this looks freakin' awesome! GOD FOCKER :D"
p4
aS'YEAH!'
p5
aS'it is ok '
p6
aS'haha awesome :D'
p7
aS'yeah baby...the fockers are back !!! whatta great ending of this year :-)'
p8
aS'ROFLMFAOOOOOOO'
p9
aS'this saga of moves can meke me feeelll so goood bebe '
p10
aS'FOCKERS. =))))))))'
p11
aS'Oh my god Dustin Hoffman is hilarious'
p12
aS'No thanks. Seen this joke before. Twice. '
p13
aS'this mede me smile after a bad day... im going to whatch the movie for sure'
p14
aS"Can't wait to see this!!!! What a great cast of actors and funny funny \nscript!! "
p15
aS'"Come here and give me a focker sandwich!" Oh Barbra you do make me laugh!'
p16
aS'omg this looks amazing!!! so guna watch that!'
p17
aS"mono channel voice editing? Sheesh. terrible mix trailer on editor's part."
p18
aS"haha, I've got eyes, too :-))"
p19
aS'first coment'
p20
aS'A enough with the focks already'
p21
aS'All you "First comment" dip shits please hit the delete button on your \naccounts. Thanks. P.S. - That goes for second, third, fourth, fifth, etc.'
p22
aS'gay focker'
p23
aS'YES OWEN WILSON!!!!!'
p24
aS'hope they make a 4th flick and eveybody dies real qucik'
p25
a.