(lp0
S'Song from 7:25 to 7:55?? The gingerbreadman one?'
p1
aS"i thought i recognized mabel's voice from some ware"
p2
aS'     T-T'
p3
aS"lawl mabels voice on gingy's wife"
p4
aS'I hate the part were Pinocchio throws up eeeeeewwwwwwww'
p5
aS'where i can get Shrek 1 full version please'
p6
aS'BOOTS MOTEL IS LOL LOL LOL'
p7
aS'I bank all'
p8
aS"I'll Switch to Pancakes. lmao omfg!"
p9
aS'The 3 mice..LOL'
p10
aS"Puss and donkey's story is funny!!! Thanks so much"
p11
aS'i am not happy...LOL'
p12
aS'Shrek story with Pinocchio reminds me of the last exoticism and paranormal \nactivity mix together but not in a scary version'
p13
aS'The writing in the middle is annoying'
p14
aS"OH let's do that again"
p15
aS'I hate the goddamn wondershare!!! '
p16
aS'my favorite'
p17
aS'On some parts it gets all colorful and things'
p18
aS'Love the exorcist parody'
p19
aS'Es muy bueno el video me gusta mucho '
p20
aS'Es excelente muy bueno el video '
p21
a.