(lp0
S'Meg'
p1
aS'Shutup.'
p2
aS"I don't remember the scene where Kunis talks to the little girl. Is that in \na different version?"
p3
aS'STOP TALKING TO ME ABOUT YOUR LIFE.. IM NINE! omg ! I died! xD'
p4
aS'pretty good movie'
p5
aS'can someone give me a site which i can download this moviee? '
p6
aS'Ha'
p7
aS'i am sri lankan u like sri lankan u coming ok'
p8
aS'Semisonic.....not green day or third eye blind'
p9
aS'bit.ly\\zEfzRe '
p10
aS'Mila Kunis is beauriful and i have the biggest crush on her now'
p11
aS'whats a friend, where can i download it? '
p12
aS':-P'
p13
aS'Wtf...'
p14
aS'sex sex sex'
p15
aS'There are three women i would love to have sex with: 1)Mila kunis \n2)Michelle Rodriguez 3)Jessica Alba These three women are the sexiest \nactresses in the world:D :D!!!!!!!'
p16
aS"That awks moment when one of her closest co-stars (natalie portman) made an \nexact movie like this.. well this was made after HER version but still \nawks. and they look EXACTLY alike.. like she even has the same highlights \nas her. Anyways who cares; i love both natalie and mila :')."
p17
aS'You deserve to be sterilised for that vacant display of idiocy. You twat'
p18
aS'slam away !!! hahaha '
p19
aS'i saw the 1D verson that is why i am here '
p20
aS"What's the title of the song that Justin sing? Thanks"
p21
aS'VERY COOL! I SAW THE ENTIRE MOVIE HERE: goo.gl\\4d5Gq'
p22
aS'wanna go with idea of tennis and sure its a physical thing '
p23
aS'haha, i like it!'
p24
aS'OK NOW I AM REALY CONFUSED. IS COSUAL SEX OK ONLY W " THAT SPECIAL PERSON " \nOR WITH OTHER FRIEND TOO. " SOW U WITH ANOTHER GAY" SEAMS LIKE THAT \nHURTED... TO WHERE DID I GO I LL ANSWER WHY U DID NOT STOPED TO TOLK W ME \nAT INTERSECTION AT 4 AM.. I WOULD PROBABLY FAINT ANYWAY:))) I STIL TRYING \nTO CACH MY BREATH !!!'
p25
aS"@sabolowich It's probably a deleted scene."
p26
aS'haha, i like it!'
p27
aS'OK NOW I AM REALY CONFUSED. IS COSUAL SEX OK ONLY W " THAT SPECIAL PERSON " \nOR WITH OTHER FRIEND TOO. " SOW U WITH ANOTHER GAY" SEAMS LIKE THAT \nHURTED... TO WHERE DID I GO I LL ANSWER WHY U DID NOT STOPED TO TOLK W ME \nAT INTERSECTION AT 4 AM.. I WOULD PROBABLY FAINT ANYWAY:))) I STIL TRYING \nTO CACH MY BREATH !!!'
p28
aS"Mila, why did you have to use a body double in your nude scenes? We just \nwant to see your hot tits and ass, not somebody else's. Fail."
p29
aS'Sexy'
p30
aS'Ohhhhhhh Just keep going!!!'
p31
aS'The end part happened differently aswell.'
p32
aS"To be completely honest, I'd like to have sex with Mila Kunis."
p33
aS"HAYMITCH GO AWAY. Stop tampering in other people's love life..... 0:50"
p34
aS'what is song in scene where jamie met shaun? (10:25)'
p35
aS"@ccsuk hahahahaha dude i say that all the time!! i don't give a fuck HOW \nhot she is . . . . SHUT UP MEG (spit)"
p36
aS'1:10 That scene wernt in the movie was it?'
p37
aS"girls might like this movie, as a guy justin timberlake has the most \nannoying character i have ever seen in a movie...and i've seen a lot of \nmovies...he takes feminine males to a whole other level without that man \nbeing gay, if i ever talked this character in real life i would imagine man \npurses and beauty school certificates"
p38
aS'this looks like a good film'
p39
aS'hello '
p40
aS"Now some people ask, why HIV/AIDS spreads so fast? here's your answer(VIDEO \nABOVE ME)............................... Ignorant Fucking. Idiots."
p41
aS'Mila kunis <3 '
p42
aS"it's funny to see Seinfeld Episodes become full hollywood movies"
p43
aS'but ashton kutcher is way sexier than justin timberlake '
p44
aS"Looks really dumb. I'll skip."
p45
aS'i will fuck mila kunis everyday, everyhour hour, everyminute,everysecond, \nall year round lol'
p46
aS"awesomee movie..i saw it yesterday,i died laughing :p and it was alsoo \nromantic..god Mila is so sexy >.< and i'm a girl! i'm rlly jealous of her \nlooks! "
p47
aS'Best movie ever -3'
p48
aS'Oh for fucks sake. I pity you'
p49
aS'Mila kunis <3 '
p50
aS'99% just watched it for mila kunis sex '
p51
aS"it's funny to see Seinfeld Episodes become full hollywood movies"
p52
aS'but ashton kutcher is way sexier than justin timberlake '
p53
aS"Looks really dumb. I'll skip."
p54
aS'i will fuck mila kunis everyday, everyhour hour, everyminute,everysecond, \nall year round lol'
p55
aS"awesomee movie..i saw it yesterday,i died laughing :p and it was alsoo \nromantic..god Mila is so sexy >.< and i'm a girl! i'm rlly jealous of her \nlooks! "
p56
aS'Best movie ever -3'
p57
aS'Oh for fucks sake. I pity you'
p58
aS'JUST SAW THIS MOVIE...... IT IS SO ENTERTAINING...TOTALLY ONE OF MY \nFAVORITES.... I SUGGEST IT :)'
p59
aS'this movie is like a commercial for apple spiced up with some nudity'
p60
aS'LoL i searched this movie on my downloading system n its in the porno \nsection XD'
p61
aS"What's worse? Having to watch this with your g-friend, or standing over a \nfresh skunk of road kill? Mmmmm..."
p62
aS"Here's another pish film I'll never watch, these two insipid cunts in a \nfilm ? ewwwwch, I'd rather set myself on fire than even try to tolerate \nthis celluloid diarrhoea, fuck THAT shite. "
p63
aS'This porn has a good story line I swear.'
p64
aS'I wonder how many movies/porn videos, or whatever this shit is, i have seen \nworse than this'
p65
aS'@AvrilFansful mila kunis better '
p66
aS'closing time:) '
p67
aS'0:37 - 0:42 Vote Up If you shrink the tone xD '
p68
aS'Why the fuck would you just tell us everything that happens? Idiot... \nThanks a lot I wont bother watching it now.'
p69
aS'Shut up meg!'
p70
aS'bad list'
p71
aS'it was:d'
p72
aS'I love this film - she called me a pppussy pmsl'
p73
aS'it was:d'
p74
aS'I love this film - she called me a pppussy pmsl'
p75
aS'TIMBERLAKE Great!!'
p76
aS'like is you have your own friend with benefits ;-) '
p77
aS'SHUT UP MEG!'
p78
aS'@sabolowich : I KNOWW -.- when i saw it i was like wtf where is that :s?'
p79
aS'Nice job Justin!!!!!  love from me!!'
p80
aS"haha i'm gonna watch that movie ;D"
p81
aS'i watch that lol they both funy! '
p82
aS"I'm going2 get around2 seeing this movie tired of only seeing the \ncommercials "
p83
aS'Wow , this movie sucks '
p84
aS'@razrednibuntovnik Hey soul sister, by train. :)'
p85
aS'SWAG'
p86
aS"Another 'murrilard bullshit. "
p87
aS'well u cud use google coverer add it 2 ur youtube page and then u cud \ndownload it for free because i am goin to upload it'
p88
aS'Haymitch :D'
p89
aS"Love this movie,it's hilarious, love Mila,she's gorgeous"
p90
aS'ha you wish'
p91
aS'Cool.'
p92
aS'what a crap film fucking sucks bad like justin timberlakes singing '
p93
aS'go play tetris Eric , go play tetris '
p94
aS'I love this movie! ! Its amazing! :)'
p95
aS"Oh god I <3 the part where the mom's like 'Just kidding SLAM AWAY!!' Lollll \nX))))"
p96
aS"they don't say but you should watch the movie...it's hilarious"
p97
a.