(lp0
S'...and then Talia trained him and he became "Hawkeye". Great prequel to THE \nAVENGEEERS!'
p1
aS'"The Immigrant" (EUA, 2013)\n\nSe no estamos dispostos a ter nossos conceitos e sentimentos transformados \npor um filme, de nada adianta pagarmos um pouco mais caro para desfrutarmos \ndo conforto da poltrona e de um delicioso jantar em uma das salas "vip" do \nCinesystem Parque Shopping, \n\nAo trmino da sesso do filme "The Immigrant",  o rosto de decepo da \nmaioria dos expectadores denunciava que a maior parte foi incapaz de \nentender a fora do amor e do perdo que a obra traz  reflexo. Talvez, \nseja um reflexo da prpria realidade porque  difcil amarmos ao nosso \nprximo quando somos magoados por ele.  muito raro perdoarmos sem \nressentimentos. \n\nO roteiro, bem distante do que  visto no "cinemo" produzido em Hollywood, \ncontribui para o no entendimento do grande pblico.\n\nParticularmente, ficamos "transtornados" com o impacto que esse belssimo \nfilme causou na nossa alma. Com lgrimas nos olhos, tentamos nos recompor. \nMas o choro prevaleceu e somente pudemos dirigir de volta para casa depois \nde algum tempo. Definitivamente, perdoar e esquecer  para poucos. \n\nA direo do competente cineasta James Gray e as devastadoras \ninterpretaes de Marion Cotillard (Ewa Cybulski) e Joaquin Phoenix (Bruno \nWeiss) so sensveis ao extremo. A trilha sonora composta por Chris Spelman \n um show a parte, bonita demais. Porm,  o personagem Bruno vivido por J. \nPhoenix que mais nos perturba porque esto concentradas nele as nossas \npulses de amor e de dio... De vida e de morte. O ator est antolgico \nnesse papel.\n\nAmbivalente ao extremo, Bruno  um daqueles personagens de livro que nos \nfaz sentirmos desde as emoes mais nobres s mais rasteiras. A partir \ndele, dos seus atos e, principalmente, do segredo que revela a Ewa nos \nmomentos finais  que vamos sendo dilacerados, consumidos, devastados. De \ntirar o flego...\n\nPara absorvermos a beleza da histria  necessrio nos permitirmos \nexercitar um segundo olhar sobre todas as coisas. Principalmente, em \nrelao  natureza humana. As ideias pr-concebidas prejudicam a viso que \n fazemos do outro. Podemos ter surpresas boas ou ruins, no importa. O \nimportante  sermos surpreendidos por essa "coisa" chamada "ser humano".\n\nEm "The Immigrant", somos o tempo inteiro e arrebatadoramente \nsurpreendidos. Precisamos voltar atrs em nossos conceitos durante as duas \nhoras do filme. Para muitos, esse  um desafio assustador.\n\nO Desfecho da histria, poucos conseguem captar e, consequentemente, \n"desintegrar-se" na poltrona do cinema. Se no conseguimos, certamente \niremos dizer a frase proferida por boa parte do pblico presente na ltima \nsesso dessa quinta-feira: "perdemos nosso tempo assistindo a esse filme".\n\nMas preferimos repetir o que disse, em um determinado momento do filme, a \nprotagonista Ewa. Principalmente, dizermos para quem teve a sensao de \nperda de tempo ao assisti essa obra maravilhosa: "Voc no  um nada". \n\ns vezes, oferecemos a rosa branca a algum que ser incapaz de ver beleza \nnesse gesto. Essa pessoa apenas vai ver "uma rosa branca". Mas outra pessoa \npode perceber que est diante ou de um "impostor" que oferece rosas brancas \napenas para seduzir ou de algum capaz de infinitamente amar a partir do \ngesto de doar uma rosa branca.\n\nEwa faz um juzo de valor equivocado do homem que, "elegantemente", deu-lhe \numa rosa branca. Na verdade, o preo desse juzo equivocado ela ir "pagar" \npelo resto da sua existncia. Mas que juzo equivocado  esse?  equivocado \npara o bem ou para o mal?  difcil, mesmo aps o trmino do filme, \nchegarmos a alguma concluso.\n\nJames Gray nos contemplou no passado com o filme "Two Lovers" (EUA, 2008). \nNessa obra, Joaquin Phoenix nos arrebatou com a interpretao do \nprotagonista Leonard. Por sua vez, Marion Cotillard nos impregnou com a \nantolgica interpretao de Edith Piaf na pelcula "La mme" (Frana, 2007).\n\nAgora, esse trio se rene em "The Immigrant" e faz a gente reconhecer que \nainda existe cinema na mais pura concepo do termo.\n\nImpossvel no endossarmos a crtica especializada brasileira:\n\n"The Immigrant, at agora,  o melhor filme exibido em 2014. Simplesmente, \nobrigatrio."\n\nResta-nos recorrermos ao pensamento de uma mulher "apesar de" para \ndefinimos "The Immigrant":\n\n"Porque eu fazia do amor um clculo matemtico errado: pensava que, somando \nas compreenses, eu amava. No sabia que, somando as incompreenses  que \nse ama verdadeiramente. Porque eu, s por ter tido carinho, pensei que amar \n fcil."\n\nC.L in "Felicidade Clandestina"'
p2
aS"I'm really sick of these xfinity adds I can't skip"
p3
aS'Music: Wojciech Kilar - Exodus.'
p4
aS"That's a nice background sound track. Anybody knows what's the name of it?"
p5
aS'"Coughs"OSCAR'
p6
aS'The BGM sounds like Bolero.'
p7
aS'JOAQUIN!'
p8
aS'All I could think about while watching this, were the Vito corleone scenes \nin the Godfather part 2'
p9
aS"Polish and Indian's ,they are true Immigrants!"
p10
aS"Why the hell is Joaquin Phoenix's name not mentioned?"
p11
aS"Don't deport Europeans. Deport third world immigrants."
p12
aS'What\'s next "The great immigration"? She uses a Slavic lastname in this \nmovie, what for? This smells like Another zionist propaganda Movie that \nIMMIGRATION IS GREAT! Do a Movie oh I know the title already! The GREAT \nmassimmigration of Ethiopian Jews to the "Holy Land" '
p13
aS'dreamy. vivid. perfect'
p14
aS'and then another movie called The Illegals'
p15
aS'hawkeye with talia...... dafuq?'
p16
aS'12 yrs of slave, prequel? '
p17
aS'This looks good '
p18
aS'A better version of this movie will be available 70 years from now, when \nthe girl crosses the borders to clean toilets '
p19
aS"I enjoyed Joaqiun Phoenix in this movie and while Marion Cotillard will \nprobably be nominated for an Academy Award for best actress, I didn't find \nher performance as compelling as her performances in La Vie En Rose or Rust \nand Rust and Bone"
p20
aS'joaquin phoenix is such a badass'
p21
aS"Whites are not immigrants. They are colonists and invaders who invented \nhate and racism to keep themselves in power. This movie should be called \n'The Satanic Invaders'... well, that's what I would call it."
p22
aS'Can everyone please just be quiet and stop being racist? This is just a \nmovie people.'
p23
aS"Whites are not immigrants. They are colonists and invaders who invented \nhate and racism to keep themselves in power. This movie should be called \n'The Satanic Invaders'... well, that's what I would call it."
p24
aS"jews if immigration is so great why don't you open your borders up to the \nwhole world"
p25
aS"Joaquin phoenix as a pimp! I'm in."
p26
aS'Early prediction: This film gets Cotillard her second Oscar.'
p27
aS'The soundtrack alone is amazing.'
p28
aS'oscar season starting early this year'
p29
aS'This song... So magical... Anyone is familiar with the song? I want its \nname'
p30
aS'Feels like The Godfather I & II meets The Illusionist.'
p31
aS'Its a good movie'
p32
aS'Lame'
p33
aS'Wow for a hot second I thought Marion Cotillard was Mila kunis lol'
p34
aS'looks fantastic'
p35
aS'Now we r talking this looks like something spacial'
p36
aS'This is what it`s all about. The real truth every single European, Asian \nyou name it  had to come to the port  in Ellis Island, NY to  suffer or \nexcel  like all the rest of the immigrants.  This will remind all that \ndescendants that their ancestors had  tremendous hardships just  so you \ncould  part of this great Nation. Very Nice Movie, Love the sentiment.'
p37
aS'     1 (2014) -   '
p38
aS'Hawkeye,quit fuckin around !'
p39
aS'looks solid'
p40
aS'This SCREAMS "The Godfather Part II" '
p41
aS'Um'
p42
aS'I thought this came out a couple years ago?'
p43
aS'The Immigrant Official Trailer #1 (2014) - Marion Cotillard, Jeremy Renner \nMovie HD The Immigrant Official Trailer #1 (2014) - Marion Cotillard, \nJeremy Renner Movie HD'
p44
aS'they should make a movie called illegal immigrant about a mexican and his \nwife and his 100+ brothers and sisters aunts and uncles cousins sneaking \ninto america and having 50+ kids each and sucking american tax payers money \nup and bringing with them bed bugs and aids'
p45
aS'Wow..now this is the MOVIE.'
p46
aS'+xFLAMeHD We ought to deport the mentally deficient like you, and then our \ncountry would be a much better place.'
p47
aS'Oscar bait.'
p48
aS'The cinematographer has my vote.'
p49
a.