(lp0
S'Check out this video on YouTube:'
p1
aS'Such a great movie!'
p2
aS'Piece of cake ^^'
p3
aS'its an ok movie not that bad'
p4
aS'Staring!!!....Motivating!!!!...I love this movie :-)'
p5
aS'Where is the music in the trailer?'
p6
aS'I love this movie '
p7
aS'Worst movie from 2013? I saw the first it was bad. I havent seen 2nd and I \nwill not go to see it, can someone tell me was it good.'
p8
aS'Some one coul to tell me the song name of the minute 1:29? thanks'
p9
aS"so..Anna Faris made a Cloudy With A Chance Of Meatballs 2 but didn't made a \nScary Movie 5 and let Ahley Tisdale ruin the movie"
p10
aS'Thumbs up if the first thing u think of when watching this trailer is Cody \nSimpson! XD looks like a gr8 movie tho.... :P'
p11
aS'"There\'s a leek in the boat!" ahaha xD I\'m loving this already '
p12
aS'so cute ..'
p13
aS"Whats the villain's name? by the way, the villain from the sequel reminds \nme of Discord from My Little Pony"
p14
aS'<333'
p15
aS'heuk heuk'
p16
aS'Uh Huh'
p17
aS'This is something that kids will enjoy.'
p18
aS'Uh Huh'
p19
aS'piece of cake... wat ?? :P'
p20
aS'yippee. cant come of out the reality of getting a iphone for doing some \nquestionnaire :) . dont think its funny, give ur delivery addr with phone \nnumber to make sure you get it. go here => bit.ly/1eTNiaB?=ozqjyh'
p21
aS'lol he should capture all the animals and make a jurassic park-esque park'
p22
aS'These puns are killing me'
p23
aS'1:08 .... he dont even have a gun'
p24
aS"I'm so excited"
p25
aS"hahahaha..There's a leak in the boat!!! lol! epic."
p26
aS'search movies at:: iwantmovies.info'
p27
aS'1:00-1:06 lol'
p28
aS'PUNS: the movie'
p29
aS'how stoned were the writers?'
p30
aS'Music at 1:40-1:50 ish please!'
p31
aS'so you want to watch it for his boringness?'
p32
aS'i loved this movie '
p33
aS'HAHAHA! '
p34
aS'i think what he meant, was that the first one was boring, but it seems to \nhim that the Sequel is better'
p35
aS'0:44 When Doritos locos tacos came out'
p36
aS'Piece of Cake'
p37
aS'So much freakin meatballs'
p38
aS'ididnt know we could sniff back tears! hahaha'
p39
aS"Barry Barry~~~~ she's so cute ><"
p40
aS'I love it.'
p41
aS'BUDDER OMG !!! :D'
p42
aS"flint says a peace of cake! then there's a peace of cake!"
p43
aS"Why didn't Mr. T return for this one? It's not like he busy with work. "
p44
aS'The Trailer is a bit wrong i watch the full movie in Cinemas last night and \nit was different.. a bit'
p45
aS'SHAYTARDS brought me here'
p46
aS"I don't know about this..."
p47
aS"flint says a peace of cake! then there's a peace of cake!"
p48
aS"Why didn't Mr. T return for this one? It's not like he busy with work. "
p49
aS'The Trailer is a bit wrong i watch the full movie in Cinemas last night and \nit was different.. a bit'
p50
aS'SHAYTARDS brought me here'
p51
aS"I don't know about this..."
p52
aS'lol butter 0:51 '
p53
aS':OOOOOOOOOOOOOOOOOOOOOOOOOOOO Must See \nMOVIEEEEEEEEEEEEEEEE!!!!!!!!!!!!!!!!!!!!!!!!!'
p54
aS'awsome movie trailer izz sooooo yummmmy how would b the movie dying to seee \nthis delicious movie'
p55
aS"Ann there's a leak in the boat lol"
p56
aS'How do you turn a strawberry into a talking strawberry ...But a Shrimp into \na ape/monkey'
p57
aS'What is the music at 1:24? '
p58
aS"I saw this movie yesterday... \n'MARRRRRRRRRRRRRRSHMAAAAAAAAAAAALLOOOOOOOOOOWW'"
p59
aS'I just might see this'
p60
aS'1:26 -I LOST it at that leek. XD'
p61
aS'...good one!'
p62
aS'the strawberry is so cute'
p63
aS'Funny Scene: "THERE\'S A LEEK IN THE BOAT!!" I thought there was an Actual \n"Leak" xD Lmao'
p64
aS'Tacodile....... SUPREME!'
p65
aS"we don't need this"
p66
aS'The amount of puns that are going to be in this movie lol... '
p67
aS'Butter evolved into pancake'
p68
aS'DEM PUNZ!!!'
p69
aS'Today'
p70
aS'Supreme'
p71
aS'what...was that?'
p72
aS'Funny Scene: "THERE\'S A LEEK IN THE BOAT!!" I thought there was an Actual \n"Leak" xD Lmao'
p73
aS'Tacodile....... SUPREME!'
p74
aS"we don't need this"
p75
aS'The amount of puns that are going to be in this movie lol... '
p76
aS'Butter evolved into pancake'
p77
aS'DEM PUNZ!!!'
p78
aS'Today'
p79
aS'Supreme'
p80
aS'0:58                \n !'
p81
aS'Tacodile- Supreme o_o'
p82
aS'ALL SO CUTEEEEEEEE'
p83
aS'why the fuck does everything have to have a sequel? '
p84
aS"This movie is going to be so dumb, and I can't freaking wait!"
p85
aS'yuhu, sikaattt!!'
p86
aS'no. please. no. you should have stopped at the first movie. :\\'
p87
aS'TORIKO MUCH!!!!!'
p88
aS'That strawberry is so nayy I wanna hug it :3'
p89
aS'whoever made these movies the sequel is cool love the leek...........cannot \nwait to see it.'
p90
aS"There's a leek in the boat! LOL"
p91
aS'Download AMG mixtape Best music group \ndatpiff.com/Lil-Germ-The-Debut-Mixtape.547513.html'
p92
aS'The puns are over 90000'
p93
aS"I can't wait to see this. c: "
p94
aS'AAAAAHHHH!!!!'
p95
a.