(lp0
S'kick ass 2 is awesome!!'
p1
aS'BEAST'
p2
aS'Wtf dog eat balls\n'
p3
aS'Warning This Trailer contains a Spoiler for Kick-Ass 1.'
p4
aS'Kick Ass 2 movie is much better then Trial ! Amazing movie.'
p5
aS"YEH! There's a Dog on your balls. HA HA!!!"
p6
aS'this wasnt that funny'
p7
aS'Jim Carrey is so badass in this movie!'
p8
aS'yeah i prefered the first one, less love and it was less predictable then \nthis one,\nregardless i loved both, and i cant wait for the 3rd one :D..'
p9
aS'THE MOTHERFUCKER KILL IT! '
p10
aS"I've seen the movie! It was funny and awesome! And I think there's gonna be \na part 3."
p11
aS'chloe you rock darlin'
p12
aS"Police: we need backup eight men down\nMother Russia: I think you mean 10 ha ha! It's so funny\n"
p13
aS'many thinks the sequel is not that good... i think otherwise... its just \ndouble the action double the fun! yeah i admit a bit awkward in certain \nscene and dialogues but i dig it... fun funny action adrenaline they made \nit fairly...'
p14
aS'Song that starts at 0:26? An the one at 2:00?'
p15
aS'The motherfucker'
p16
aS'oh chlo you are so funny !!'
p17
aS'The movie is very funny, I really liked it'
p18
aS'1:57 is <3'
p19
aS'You can whatse every movie on primewire.Q'
p20
aS'A mi me pareci muy buena esta segunda parte, entiendan que esta pelcula \nsigue el modelo de la Historieta Kick Ass 2 , pero no es 100% exacta a la \nhistorieta, la historieta es mucho mas fra,cruel y sangrienta. Y la \nactuacin de Chloe es genial le da el toque "bad ass" a la pelcula y es \ntan hermosa adems kick no es una pelicula donde un actor pueda sobresalir \npor su talento ya que es prcticamente pura accin y pelea , pero ya se \nvienen 5 pelculas de Chloe : "If I Stay ", "The Equalizer", "Sils Mara", \n"Laggies" y "Dark Places" .Y estoy seguro que nos cautivar como siempre lo \nhace cuando tiene papeles oscuros y dramticos , es tan talentosa y hermosa \nla amo tanto '
p21
aS'love Chloe Grace Moretz'
p22
aS'You can whatse every movie on primewire.Q'
p23
aS'nah that is not superhero but its a gang..\nmasked gang..'
p24
aS'the first movie was way better'
p25
aS"I saw the first kick ass on Netflix once and I wasn't really impressed with \nit,I saw this movie on cinemas and loved it! It's awesome!"
p26
aS'kick ass 1 was much better,this sucked shit'
p27
aS'Lol the mother fucker'
p28
aS'this is worse than cancer'
p29
aS'This movie was freaking great. Not as awesome as the first one but still a \nworthy sequel and an awesome film.'
p30
aS'if you stop the video at EXACTLY 2:02....... oh.. my God... :Q_*__*'
p31
aS'The Mother-fucker\nNice name'
p32
aS'Oh God...Hit GIrl is Hot....and Kickass was now awesome......damn its a \ngood and funny MOvie.....I hope there would be prt.3'
p33
aS"Whoever says this isn't a good movie can burn in hell..."
p34
aS'Im not a spammer or scammer, just watched this movie and loved it so much...\nYou dont download anything or you can go to jail but just click play\nthe link to watch the movie \nhttp://www.megashare.info/watch-kick-ass-2-online-TmprNU1RPT0'
p35
aS"my favorite guy is Cris D'Amico/red mist/the mother fucker/Christopher \nmintz plasse he is boss!"
p36
aS"This movie didn't rock as the first part :( Sure it has sme laughs but it's \nnot enough. It just looks like a bad costume party. Even Jim Carrey \ncouldn't help it. 3.7/10\n#trailer   #superheroes   #jimcarrey   #chloemoretz  "
p37
aS'Kick-Ass 3!! please!!!'
p38
aS'Kick Ass > Kick Ass 2 > Kick Ass 3 "i hope" 0:)'
p39
aS'Most underrated movie ever.'
p40
aS'Whats the song in the beginning?'
p41
aS"Jeff Wadlow really fucked this one up, should be banned from any form of \nmovie making. With a bad script and a bad director it doesn't matter how \nwell the actors do."
p42
aS'the motherfucker'
p43
aS'Yes really thi is the villain name the motherfuck, it aka son of a bitch.'
p44
aS'I heard that Kick Ass 3 will be way bloodier and many superheroes will \ndie..'
p45
aS'IF YOUR READING THIS DONT LOOK AT THE OTHER COMMENTS, THERES SPOILERS!!!! \nDont look down! Its a good movie, dont let people ruin it!'
p46
aS'TARANTINO IN KICK ASS 3!'
p47
aS"I'm getting the movie on blu-ray"
p48
aS'comedy action tank you god'
p49
aS"I fking love Chlo Moretz's character in this both parts of this movie"
p50
aS'Jim Carrey in an action movie.feels weird'
p51
aS'decepcionante no le llega ni a los talones a la primera'
p52
aS'The Motherfucker? Really? lol '
p53
aS"This movie is a disaster. Wish they didn't made a sequel. They just ruin \nHit Girl :C.\nDidn't like the story too. Didn't want Colonel to die too :C"
p54
aS"I haven't seen this film yet but I will watch it on DVD "
p55
aS"I'm watching this because of Mclovin :D"
p56
aS"The movie trailer for this movie looks nice, am I right? Have you thought \nto check out the whole thing like I did the other day. I actually watched \nit more than once, but it is streaming for free hence I'm okay with just \nthat. They also have other new movies that are just being released. Check \nout the link below to visit the website... *WatchTheseNow. *"
p57
aS'Loved it, not as much as the first but still badass! Saw that coming with \nhit girl reaching puberty and what not. Stay after the credits ;)'
p58
aS'Kick ass 2\nDo not miss an extra ending scene after the credits!!!!!!'
p59
aS'this film was a total bummer, just as Piranha 3DD'
p60
aS"Holy crap that's Jim carrey??"
p61
aS'#Kick-Ass 2'
p62
aS'McLOVIN DIES !!!!!!!'
p63
aS'The Soviet-Russian whore is very ugly like all commie scums'
p64
aS'\n\n\n\n\n\n'
p65
aS'A voir en fr http://www.purevid.com/v/9319Gy3x2z4stsz865633/'
p66
aS'Schwanz wieder'
p67
aS" 2 wasnt as good as the first....but it was still ok....... i still dont \nunderstand why the story hooked up HIT-Girl with boys,.....i mean she's \nonly 15 .........they shud rename the movie HIT-girl...she ROCK!!!!!!!"
p68
aS"Stop hating on the second one! It's OK to give your opinion but quit \ntalking shit about it! Some of us both movies, OK?"
p69
aS'Most disappointing movie of all times'
p70
aS'HAHAHAHA NICE '
p71
aS'this was my movie it was hilarious'
p72
aS'Kick ass 2 watched it tonight: stupid, bloody, violent, I loved it!'
p73
aS'h'
p74
aS"This honestly looks terrible in comparison to the original. Can't believe \nthey actually got Jim Carrey to be in this. "
p75
aS"if they make a third one, let's pray to god that matthew vaughn directs it \ninstead of that jeff guy that ruined this sequel."
p76
aS'Amo a la nia :33'
p77
aS"the only reason people don't like this one as much is because they didn't \nread the comics and i mean all the comics -.-"
p78
aS'Kick ass2 is aosm'
p79
aS'tes-vous prt  vivre une nouvelle aventure remplie daction et de rires ? \nDans ce cas, ne ratez pas le prochain opus de la saga Kick-Ass qui sortira \nle 21 aot 2013 dans nos salles obscures. Pour rappel, vous retrouverez \nAaron Taylor-Johnson, Chlo Grace Moretz et Jim Carrey, dans cette uvre de \nJeff Wadlow. Patience, patience !\n\nKick-Ass 2 Official Red Band Trailer #1 (2013) - Aaron Taylor-Johnson Movie \nHD'
p80
aS'Saw the new Kick-Ass.\n\nI will try my hardest and not make this a love letter to Hit Girl.\n\nHIT GIRL FOR PRESIDENT!\n\nOk, moving on.\n\nLoved it. The whole silly thing. Loved it.\n\nIt is a sort of homage to the people out there in the real world who dress \nup in costumes and go around on "patrols", which stretched my imagination a \nbit too much and nearly lost me, but it\'s so wild I couldn\'t do anything \nbut bow down to it.\n\nIt\'s brutal, amateurish and perfect. Very much what I needed.'
p81
aS'Just finished watching KickAss 2! solid good movie that does justice to its \ncomic book source. Jim Carrey was awesome(finally) :P \nhttp://youtu.be/7UMbwxbgv8U'
p82
aS'Es curioso como puede terminar nuestra amistad +juan alvarez  ......\n\n\nKick-Ass 2 Official Red Band Trailer #1 (2013) - Aaron Taylor-Johnson Movie \nHD'
p83
aS"The trailer makes this movie look so good when it really wasn't. The first \none was sooo much better, should have left it at that. "
p84
aS'Round the corner folks!!'
p85
aS'Saw this tonight.\n\nIt was over the top.\n\nKick-Ass 2 Official Red Band Trailer #1 (2013) - Aaron Taylor-Johnson Movie \nHD'
p86
aS'this movie looks great +1 if your going to see it'
p87
aS'Lmaoo he said they will be calling me The MotherFucker i need to see this \nmovie... Of to KickassTorents :) '
p88
aS'Kick ass2'
p89
aS'mother fucker!'
p90
a.