(lp0
S'Movie Night/Potluck Friday, September 26, at 6:30pm Bring a friend & your \nfavorite dish to share. Questions? Call (714)953-5533'
p1
aS"Why are so many people putting advertisements on here for websites where \nthis can be watched for free?  Don't they appreciate all the time, work, \nand money that has been put into this movie?  If you want to see Captain \nAmerica 2 then just buy it!  It's freakin' worth the money!!\nIf everyone just watched movies online and never spent money on them, movie \ncompanies would never be able to make movies in the first place!  (and if \nthey could, they certainly wouldn't be able to make beautiful quality \nmovies like this one).  So please, quit with the advertisements. "
p2
aS'I love how the winter solider is so mysterious !'
p3
aS'Can someone give me a legit site where i can see this for free'
p4
aS'saw the first one, Capitan America is AWESOME!!!!!'
p5
aS'is it online for free yet?'
p6
aS'i wanna see this movie\n\n+1 if u like captain America'
p7
aS'Watch Captain America: The Winter Soldier Movie trailer.\nhttp://youtu.be/82RKQPgeYRs'
p8
aS"What the hell, spoilers left and right. I'm so glad I didn't watch the \ntrailer before hand."
p9
aS'"To build a better world sometimes means tearing the old one down" = New \nWorld Order'
p10
aS'DOWNLOAD FULL HD AT \nhttp://www.downmovie.tk/2014/08/captain-america-winter-soldier-2014.html'
p11
aS'very nice movie'
p12
aS'CAPTAIN AMERICA: THE WINTER SOLDIER '
p13
aS'This is incredibly entertaining movie!! '
p14
aS'Just saw it Friday when it came out beats avengers captain is a beast I \nwent in coustume '
p15
aS'Heyy!!! Wheres Peggy Carter WE WANT HER BACK!'
p16
aS'After you watch this video come visit my channel\nThanks for your time \nGod loves you'
p17
aS'Thor sucks dick'
p18
aS'Awesomeness. I know what movie I want to see next...'
p19
aS'stupid Americans'
p20
aS"First off, it's Captain America: The First Avenger. Next, it's Captain \nAmerica: The Winter Soldier. Which is the difference between the two \nmovies?"
p21
aS'FALCON'
p22
aS'Download : Captain America : The Winter Soldier 2014 full movie ( go to my \nvideos and download the movie )'
p23
aS'I used to doubt Chris as Cap before the First Avenger, but dude murdered \nit!'
p24
aS'Get The real 1 here-http://lnked.org/b1cd0'
p25
aS'Papa Doc from 8 Mile'
p26
aS'What are they gonna do if they ever wanna include the fantastic four in a \nsuperhero movie like the Avengers was? Chris Evans is both Johnny Storm and \nCaptain America....'
p27
aS'OH MY GOD, THEY KILLED HELICARRIER! \n\n(You bastards!)'
p28
aS'I want Beast to have his own movie......'
p29
aS'Cannot ever wait for this movie!'
p30
aS'Hmmm I think I should watch out for more of this. Could be interesting to \nsee this in real life :)'
p31
aS"The first movie was meh let's hope this one will be better."
p32
aS'HAIL HYDRA'
p33
aS'Download : Captain America : The Winter Soldier 2014 full movie HD ( go to \nmy video and download the movie )'
p34
aS'download link free ul.to/geku1atf'
p35
aS'Simpelemente espectacular.... Debo volver a verla.... No olviden no \nperderse la escena post-creditos....'
p36
aS'I just want to share where I downloaded here \nmirrorlink#.in/captainamericathewintersoldier2014hdqualityfullmovie (Delete \n#)'
p37
aS"I saw this movie yesterday and it is actually the best marvel film I have \never seen. I'm not exaggerating. I love it!"
p38
aS'if the enemy is too strong,why not call hulk,ironman or thor? ahahah'
p39
aS'black widow is so god damn fitt'
p40
aS'The suit is much better now. Haha! And i love the movie. Much! x'
p41
aS'One of the planes are like the pelican in halo'
p42
aS"yay it's finall out!!!"
p43
aS'I just now got back from watching that at the movies. GOD IT WAS AWESOME'
p44
aS'This movie was awesome as fuck'
p45
aS'cool'
p46
aS'Check out this review! This movie is a must see, it turned.me into a huge \nCap fan!\nhttp://houndsports.com/2014/04/04/captain-america-winter-soldier-review/'
p47
aS'i saw that movie last night Chris Evans as Captain America is the perfect \ncombination. the best thing in this movie is the apparel in this movie. in \nthis movie i saw Chris Evans wearing blue jacket i order this jacket for my \nbrother as gift on his birthday. if you want this jacket also then this is \nthe perfect place. just click on that link.\nhttp://goo.gl/B0di6u'
p48
aS'Captain America: The Winter Soldier - Official Tr: \nhttp://youtu.be/82RKQPgeYRs'
p49
aS"Can't wait for this movie"
p50
aS'Will always see him As the human torch :) but I will see this movie!'
p51
aS'get more info about dis movie and also of upcoming 2014 movies along with \nthe Release date, starcast, trailer and many more updates \nvisit.............. smthingnew.com'
p52
aS"CAN'T WAIT TO SEE THIS!!!!"
p53
aS'i think thor or iron man will defeat this all enemies just in seconds'
p54
aS"AWESOME, I'M OUT OF WORDS FOR THIS ONE !"
p55
aS'qu hay ch i thi'
p56
aS'Damn.  Chris Evans is sooo hard to look at.\n\n#Pant  '
p57
aS'I just realized... SHIELD is basically X-COM with superheroes.'
p58
aS"for those of u who think cap's shield is wat makes him special (in super \nhero terms) then ur wrong. he is great at close combat, dodged bullets and \nso many more things to do with combat. he fought a never-ending fight with \nbatman (for those of u who think he is superb in combat). they were equally \nmatched. eventually the fight had to end and thats coz they both got \ndistracted and batman took advantage of that quickly."
p59
aS'you guys need to put a hispanic Super Hero.. lots of white and African \nAmericans people but no latino super hero.. you should put this guy...\n\nOperation Mona Lisa'
p60
aS'International Short films. like on us Facebook\nhttps://www.facebook.com/hyderabadvideographyclub?ref=hl'
p61
aS'Worst Trailer ever, it starts telling you, the helicarrier is created and \nat the end... it blows up. Great spoiler there.'
p62
aS'So apparently I\'m not allowed to reply to the down below but this is aimed \nat the super soldier comment.\n\nCaptain America is a SUPER SOLDIER.  You idiots who think "Oh, bullets are \nhis weakness!" Let me give you a bit of a... mind blowing statement.  He is \nthe Hulk, minus the infinite rage.  In fact, the Hulk was made from trying \nto remake him.  Want a good idea of just how badass he is without picking \nup a comic, look at any game title with the concept of a super soldier. \n Right off the top of my head, Halo, Master Chief.  He lacks the armor but \nhas all the rest.  Enhanced Speed, Enhanced strength, Enhanced Reflexes. \n Not only that but he\'s courageous.  Dude drops out from an airplane \nwithout a parashute.  Ever try doing that?  Good.  Iron Man is a Hero too \nand you know what the funny thing is?  Take away the shield and the suit \nand put them Iron man vs Captain America and I can guarantee you the \nCaptain doesn\'t take lose anything.\n\nNow I\'m sure someone\'ll get pissed or a fanboy will try to correct \nsomething I said but I think I got my point across.  The Captain\'s a \nbadass.  You go ahead and take a mini-gun, rocket, hell take a tank to him \nand let\'s see you say "Oh he\'s nothing".'
p63
aS'Download Fastest FB Android App for faster facebook...Click On below link \nto Download: http://files.appsgeyser.com/FastestFB.apk'
p64
aS"Please someone assure me Cap doesn't die in this movie!!!"
p65
aS'"Guys guys guys it\'s an emergency Star Trek II crashed a spaceship we need \nto crash a ship too"'
p66
aS'Im so hype to see Bucky as the Winter Soldier in this movie.'
p67
aS'Use Tomato and Lemon\n" lemon " as well as tomato would be the organic whiten because of that \nthey are efficient with regard to lightening your skin colour. Each \ncollectively can be used each and every alternative day time for just two \nseveral weeks to see the actual enhanced justness about the encounter. It \nis advisable to put together the actual load up just getting tomato as well \nas " lemon " forTo start with, very first grate 1 big tomato. For this \ngrated tomato blend  teaspoon " lemon " liquid. After that put it on about \nthe encounter as well as neck of the guitar. Allow load up end up being \nsoaked up inside the pores and skin levels with regard to 20 min\'s. Later \non clean your skin along with drinking water. The actual citric character \nassociated with tomato as well as " lemon " assists within whitening the \nface area\n\nWant to know more click here\nwww.unilever.com'
p68
aS'i think thor or iron man will defeat this all enemies just in seconds'
p69
aS'https://play.google.com/store/apps/details?id=com.companyname.background_prueba\n'
p70
aS'Mad A Road!!!!!!!!!!!'
p71
aS'*mode'
p72
aS'Looks way better than iron man'
p73
aS'Robert Redford ROCKS again!!!'
p74
aS'is that another hellicarrier going down'
p75
aS'http://www.thewalkman.it/solitudine-pillole-di-cinema/ 4 amazing movies, 1 \ntheme: #loneliness'
p76
aS'Dafuq did I just watch? What is this all about?'
p77
aS'Cap America calls Hulks! Hulk SMASH the winter soldier and bam he is \ndead...end of movie!!!'
p78
aS'http://hd-movie.net/m/100402-captain-america-the-winter-soldier'
p79
aS'AWESOME!'
p80
aS'Very fitting for who always want a quick and easy process, with the best \nquality here \nmirrorlink#.in/captainamericathewintersoldier2014hdqualityfullmovie \n(delete#)'
p81
aS"Watched the movie last night....Awesome.  Lots of good fight scenes and get \nto see more of Chris Evans in person rather than in his mask......and don't \nleave the cinema until the credits have finished rolling."
p82
aS'Captain America 2: The Winter Soldier[FULL MOVIE][CAM]'
p83
aS'awesome trailer, but besides that: you call that hd? xp'
p84
aS'winter is coming'
p85
aS"Work at home and earn up to $500 per day BY DOING NOTHING MUCH! I've earned \n$1500 in 5 days and THIS IS ABSOLUTELY TRUE! Simply sign up now by clicking \nthis link and check it out for yourself! \nhttp://themonthlyjob.com/?refcode=627"
p86
aS'waitin for this movie'
p87
aS'Scarlett Johansson is one sexy woman '
p88
aS'Watch Captain America: The Winter Soldier 2014 Free Movie Streaming [HD]. \nVery fast streaming and movies are released in DVD copy. [100% Working]\n\nWatch Captain America: The Winter Soldier 2014 full movie here >>> \nhttp://goo.gl/fjx0qM\n\nWatch Captain America: The Winter Soldier 2014 full movie here >>> \nhttp://goo.gl/fjx0qM\n\nWatch Captain America: The Winter Soldier 2014 full movie here >>> \nhttp://goo.gl/fjx0qM\n\n\n\n\n\nHave fun and enjoy!'
p89
aS'Ohhh snap was that Falcon I saw, shooting a jet then jumping of the \nHellicarrier?'
p90
aS'My wife and our youngest return later today.  Things that I should be \nworking on:\nClean up the house\nMake progress on some work related stuff\n\nWhat did I actually do?  Went to see Captain America: The Winter Soldier, \nagain!  :)  Time well spent I think.  I picked up lots of little things \nthat I missed the first time around.  Guess I will have to pick this up on \ndisc when it is available.'
p91
a.