(lp0
S'OMG. You Should Watch this! Go Here 54Movie. Cm '
p1
aS"Y Cannt ffrd T Miss Ths Grt Flck It's Plying tt 54Mvis. Cm "
p2
aS' Suprb Mvie G Wtchh it at 54Movis Cm '
p3
aS' Suprb Mvie G Wtchh it at 54Mvies. Cm '
p4
aS"Brilliantly Made, Fine Acting It's Available At 54Movies. Cm"
p5
aS" This Blew My Mind..Must Watch! It's Playing at 54Movie. Cm"
p6
aS' Suprb Mvie G Wtchh it at 54Mvies. Cm '
p7
aS'Of all the trailers for this film this was my favorite. '
p8
aS"Omg this trailer gives me chills... I can't wait to watch it tonight on \nfilmsi.co.cc I've never even heard of it before! =D This is a trully \namazing pieces of art.....outstanding !! I think you gonna love it !!"
p9
aS" This Blew My Mind..Must Watch! It's Playing at 54Movie. Cm"
p10
aS'OMG. You Should Watch this! Go Here 54Movis. Cm '
p11
aS" Brilliantly Made, Fine Acting It's Available At 54Movies. Cm "
p12
aS'Bowl and a movie!'
p13
aS' Noway!! But Yes You Catch This M0vie Online On 54Movie Cm '
p14
aS'Suprb Mvie G Wtchh it at 54Movies. Cm '
p15
aS'check out this cool Statham scene :) watch?v=2uhTEJ9mgfk'
p16
aS"Enjyed t. It's Playing At 54Mvies. Cm"
p17
aS'did stallon had a face lift???>? '
p18
aS' Loved it!! then Watch it 0nline 0n 54Movies. Cm'
p19
aS'wow no top comments'
p20
aS'OMG. You Should Watch this! Go Here 54Movis. Cm '
p21
aS' Loved it!! then Watch it 0nline 0n 54Movies. Cm '
p22
aS' Fantastic! I Just Saw it! See this Movie @ 54Movis. Cm'
p23
aS" Enjyed t. It's Playing At 54Mvies. Cm "
p24
aS'Gt  FRE pple Phone 4G Frm M Channl'
p25
aS" Enjyed t. It's Playing At 54Mvies. Cm "
p26
aS'Gt  FRE pple Phone 4G Frm M Channl'
p27
aS' Noway!! But Yes You Catch This M0vie Online On 76?ovies. Com '
p28
aS' Fantastic! I Just Saw it! See this Movie @ 54Movis. Cm '
p29
aS"This is not trailer. This is some kind of art. Pure art. LOVE it! I am \nlooking for see it on filmsi.co.cc right now... I can't wait for this - \nDays of Heaven is one of my top ten favourite films OF ALL TIME and this \nlooks like it cover similar ground. Plus it really looks amazing."
p30
aS' Noway!! But Yes You Catch This M0vie Online On 54ovies. Cm '
p31
aS' Noway!! But Yes You Catch This M0vie Online On 54Movie. Cm '
p32
aS' Suprb Mvie G Wtchh it at 54Movies. Cm '
p33
aS'Gd Move ,..... Vsitt on 54Movis. Com To Watttch t. '
p34
aS'@oldsoldier2001 hahaha,you forgot those two talking trees:keanu reeves and \nchanning tatum'
p35
aS" Brilliantly Made, Fine Acting It's Available At 54Movie. Cm "
p36
aS'Noway!! But Yes You Catch This M0vie Online On 54Movie. Cm '
p37
aS' I Really Loved The Concept See the Movie Here 54Mves. cm '
p38
aS'#LOL This Movie is nw on 54Mvies. Cm'
p39
aS"Dis was a kick ass movie! Definitely need to get THE EXPENDABLES on DVD \ncause in years to come it's gonna be a collector's item. You will NEVER see \nall these big name action stars on the same screen again."
p40
aS' Noway!! But Yes You Catch This Mvie Online On 54Movie. Cm '
p41
aS" Brilliantly Made, Fine Acting It's Available At 54Movies. Cm "
p42
aS' Noway!! But Yes You Catch This M0vie Online On 54ovies. Cm '
p43
aS'Suprb Mvie G Wtchh it at 54Movies. Cm '
p44
aS" Brilliantly Made, Fine Acting It's Available At 54Movie. Cm "
p45
aS'I Really Loved The Concept See the Movie Here 54Mves. cm'
p46
aS'Gd Move ,..... Vsitt on 54Movis. Com To Watttch '
p47
aS' Fantastic! I Just Saw it! See this Movie @ 54Movis. Cm '
p48
aS' Loved it!! then Watch it 0nline 0n 54Movies. Cm '
p49
aS" Brilliantly Made, Fine Acting It's Available At 54Movies. Cm "
p50
aS' Noway!! But Yes You Catch This M0vie Online On 54ovies. Cm '
p51
aS'Suprb Mvie G Wtchh it at 54Movies. Cm '
p52
aS" Brilliantly Made, Fine Acting It's Available At 54Movie. Cm "
p53
aS'I Really Loved The Concept See the Movie Here 54Mves. cm'
p54
aS' Gd Move ,..... Vsitt on 54ovis. Com To Watttch t. '
p55
aS'Gd Move ,..... Vsitt on 54Movis. Com To Watttch '
p56
aS' Fantastic! I Just Saw it! See this Movie @ 54Movis. Cm '
p57
aS' Loved it!! then Watch it 0nline 0n 54Movies. Cm '
p58
aS'Loved it!! then Watch it 0nline 0n 54Movies. Cm '
p59
aS'posting with transporter 3, the mechanic jan 2011 for jason stratham :)'
p60
aS' Get a FRE Apple iPhne 4G From M Chnnel '
p61
aS' Noway!! But Yes You Catch This M0vie Online On 54ovies. Cm '
p62
aS'Stream"\'`It\'\'"Now`\'` .. Copy,."&`,.Paste\'\'\''
p63
aS' #LOL This Movie is now on 54ovies. Cm '
p64
aS'@preetyavril fuck u'
p65
aS"This has the potential to be the visual film of the year AND the storyline \nlooks awesome as well! Please don't disappoint... I will check it on \nsitemoovis.co.cc now. Hope it will be great film."
p66
aS'Dwnlad and Watch the Full mvie Expendables. Direct dwnlad link.N \nsurvey.N CC required.Just sign up and dwnlad using below link: \nexpendables . tk'
p67
aS' Gd Move ,..... Vsitt on 54ovis. Com To Watttch t. '
p68
aS' #LOL This Movie is now on 54ovies. Cm '
p69
aS'@TheForestKan You are mentally ill my friend.'
p70
aS" Enjyed t. It's Playing At 54Mvies. Cm "
p71
aS'I liked the Saiga semi-auto 12 gauge Terry Crews was working. It\'s what we \ncall, "A mover and a shaker."'
p72
aS"This Blew My Mind..Must Watch! It's Playing at 54Movie. Cm "
p73
aS' Get a FRE Apple iPhne 4G From M Chnnel '
p74
aS' Noway!! But Yes You Catch This M0vie Online On 54ovies. Cm '
p75
aS'Stream"\'`It\'\'"Now`\'` .. Copy,."&`,.Paste\'\'\''
p76
aS' #LOL This Movie is now on 54ovies. Cm '
p77
aS'@preetyavril fuck u'
p78
aS"This has the potential to be the visual film of the year AND the storyline \nlooks awesome as well! Please don't disappoint... I will check it on \nsitemoovis.co.cc now. Hope it will be great film."
p79
aS'Dwnlad and Watch the Full mvie Expendables. Direct dwnlad link.N \nsurvey.N CC required.Just sign up and dwnlad using below link: \nexpendables . tk'
p80
aS' Gd Move ,..... Vsitt on 54ovis. Com To Watttch t. '
p81
aS' #LOL This Movie is now on 54ovies. Cm '
p82
aS'@TheForestKan You are mentally ill my friend.'
p83
aS" Enjyed t. It's Playing At 54Mvies. Cm "
p84
aS'I liked the Saiga semi-auto 12 gauge Terry Crews was working. It\'s what we \ncall, "A mover and a shaker."'
p85
aS"This Blew My Mind..Must Watch! It's Playing at 54Movie. Cm "
p86
aS"I watched this on moovi.co.cc.. A pleasure to watch. Leave everything and \ngo on a trip full of fun, energy and action with this movie! You won't make \na mistake with this choice, not at all. So don't waste your time, lets free \nthis adventure and enjoy!!"
p87
aS' Enjoyed It. Visitt MMYY Pr0filee To See the |\\/|0vie. '
p88
aS'This is what happens when you put a dream team action hero cast together, \nthey work best alone.'
p89
aS" Enjyed t. It's Playing At 54Mvies. Cm "
p90
aS'i love the EXPENDABLES the MOVIE is NICE'
p91
aS' #LOL This Movie is now on 76ovies. Cm '
p92
aS"Brilliantly Made, Fine Acting It's Available At 54Movie. Cm "
p93
aS'Jet Li kicks so much butt all the time. All of these trailers get me pumped \nup. Have you guys seen the trailer for "Films of Fury?" bitly .com/uBGPir'
p94
aS' God Move Vit on 54Mvies Cm To Wtch t. '
p95
aS"like a good ole 80's action movie"
p96
aS'Is it just me or does the narrators voice annoy the heck out you.'
p97
a.