(lp0
S'I yawned countless time in the first 28 minutes, fckin boring!'
p1
aS'Shit movie, no action what so ever.'
p2
aS'what a lame trailer, i suggest you watch the movie. Its more nice'
p3
aS'Good movie'
p4
aS"I couldn't get trough the fucking trailer. I can't even imagine watching \nthe full length movie"
p5
aS'In my humble oppinion the best movie ever made. Not talking special \neffects, not talking emotions (thou they are there). Talking about plot and \nscenario. Best. Movie. Ever.'
p6
aS'great movie ,you can play it with only audio and still will be great !'
p7
aS'Good movie, terrible trailer.'
p8
aS' Some loved it, some hated it. I think its a brilliant film, but to each \ntheir own.\n Its our freaking right after all.'
p9
aS'They are also trying to make a tv series out of this ! \nfor the fans : \nhttps://www.kickstarter.com/projects/1759006687/man-from-earth-the-series'
p10
aS'The Man from Earth - Movie Trailer'
p11
aS"after 7 year i've found this film again"
p12
aS"Fantastic. When I read a short description of the movie, I was hoping for \nflashbacks and scenes of his entire life, but I wasn't disappointed with \nhow the movie turned out to be, at all! But yeah, this trailer sucks."
p13
aS'I just watched the movie ... and i have one word to say: WOW !!!'
p14
aS"Good movie ,\n \nI really loved it, and in all its simplicity I think it's brilliantly made!\n \nA catching story, good natural acting and no stupid special effects or \nviolence.\n \nEnjoy it Here;  The Man From Earth (2007)"
p15
aS'Different movie'
p16
aS"Today I watched this movie and I really blame myself for don't it before. \nVery absorbing, appealing and touching story.\nI strongly suggest to watch it to any sci-fi fan or anybody else.\n\nHoy he visto esta pelcula y lamento no haberlo hecho antes, la verdad.\nUna historia muy absorbente, atrayente y conmovedora.\nSugiero encarecidamente verla a cualquier aficionado a la ciencia ficcin o \na cualquiera."
p17
aS'really good movie considered it all happens in 1 house the story is really \ncatchy but the trailer dosnt bring this movie Justice.'
p18
aS'\nThe Man From \nEarth\n'
p19
aS'one of my favorite movies'
p20
aS'1 room, 1 hour and 30 minutes, and i could not take my eyes off the screen. \nThis movie was genius. The very concept of debating every "known" fact, the \nidea that an expert will inevitably argue another experts point of view, \nand countless more querks. This movie is Incredible, make sure you watch \nit.'
p21
aS'brilliant and fantastic movie!!!'
p22
aS'holy fucking shity trailer'
p23
aS"That's true. But the movie is awesome."
p24
aS"what's the bethoven song that cames in this movie? "
p25
aS'+sjngasfjaisfd\nReligion and myths are such a big part of human history that it had to be a \nbig part of the movie.'
p26
aS'brilliant movie'
p27
aS"American's wondering whether or not European's should trust China instead \nof America, ever wondered where america got its army funded money from? \nThats right, China! \n\nOhwyeah and america's policy is that they make up the global rules without \nglobal support, you can support it, but how can anybody who doesn't put \ntheir trust on that??\n\nAlso that stupid ass nuclear protection umbrella would not be needed if the \nUS didn't go rampage every country that had different idealistic's and \nforce them to get in line."
p28
aS"Oh my gosh are half the people in the comments oblivious?\n\nThe movie is not about religion, that was more or less during the third act \nof the movie and it less significant, the only person it even affected was \nthe older lady and it is not the premise of the movie in no way shape of \nform.\n\nThe movie is good and touches on some good points on how time, history and \nwe experience things are through a certain perspective and as for the \nreligion part, it made some interesting points on how Buddhism and \nYeshua/Jesus's teachings have similar background just like Ancient Ma'at \nand Islam have similar premises\n\nOf course people do not see it because they are either religious fanatics \nand only like the celebration fan fare or they are angry disbelievers who \nthink any philosophy of that sort is idiotic. I repeat, this is not a \nreligious based movie whatsoever, but it is a very GREAT sci-fi movie I \nhappened to watch at the spur of a moment. "
p29
aS'I need to buy the dvd of this movie asp'
p30
aS'Hoy hablaremos de unas de las mejores pelculas del 2007:The Man from Earth\n\nLo mejor de todo es que no hay efectos especiales, no es secuela, ni \nremake, no hay ninguna gran estrella de por medio. Simplemente es una \npelcula que te deja durante hora y media pegado a la pantalla. Sin ceder a \nla apata ni al aburrimiento. Dejando ese buen sabor de boca que deja una \nbuena pelcula. Al final parece que para conseguir eso tengamos que ver una \npelcula fuera de lo que se estrena a menudo en las grandes salas de cine y \nque tanto dinero amasan pero que tan huecas suelen estan por dentro.\n\nY es que The man from Earth cautiva de principio a fin.\nTodo viene de la mente de Jerome Bixby, un conocido autor de relatos de \nciencia ficcin. La pelcula Viaje Alucinante se bas en una historia \nsuya, as como no pocos episodios de Star Trek y The Twilight Zone fueron \nfirmados por l.\nNo pudo, desgraciadamente, ver su obra hecha en el celuloide, ya que \nfalleci en el ao 1998. Sin embargo su hijo Emerson Bixby llevo a cabo tal \ntarea.\n\nHace aos buscando material sobre esta pelcula en internet me he d cuenta \nde una cosa, algo que me estaba oliendo nada ms acabar su visonado. Esta \npelcula se ha convirtido en una pelcula de culto.Cosecho buenas crticas \ny encima su difusin a traves de los programas p2p o descarga directa (as \nla consegu ver yo. Porque si tengo que esperar a su estreno en Espaa lo \nllevo claro y estamos hablando de una pelicula estrenada en el 2007) ha \nprovoco increblemente la gratitud del mismsimo productor de la pelcula, \nEric D. Wilkinson.\nPero de que trata esta pelcula para que gustase tanto?\n\nTodo es bien sencillo. Imaginaos que vais a despediros de un compaero de \ntrabajo. Vosotros sois profesores de Universidad. Despus de 10 aos va a \nlargarse a otro sitio y quereis darle la despedida de turno. l os lo \nagradece, pero os comenta la razn sobre su marcha, no sin antes haber \nsoltado un par de preguntas algo alocadas y muy posiblemente dentro de \nlos parmetros de la ciencia-ficcin. Nos lo reconoce. l es un ser \nprehistrico que no ha envejecido desde hace 14.000 aos. Todo tiene que \nser una broma. Pero l no demuestra que sea as. Al revs, sus \nargumentaciones y respuestas son tan precisas y rpidas que todo pende de \nun hilo. Puede ser todo una gran mentira o una gran verdad. Y no existen \nrealmente formas de demostrar lo uno o lo otro.\n\nSumad a eso un nico escenario. Una casa en medio del campo.\nOcho actores demostrando una gran vala para meternos de lleno en esa \nhistoria.\n\nY simplemente dejaros llevar por sus dilogos. Es lo que tienen esta \npelcula, dilogos. Ellos son los que la convierten en una pelcula de \nciencia-ficcin. No hay fx como he comentado al principio del post. No hay \naccin tampoco. No hay flash-backs para ver a nuestro protagonista hace \nmiles de aos. Ni maquillaje. Ni nada de nada. Todo se basa en una charla \nentre amigos que va tocando temas totalmente polmicos (dentro del tema \ncentral que he destacado antes hay una serie de giros que acaban provocando \npolmica entre algunos de los personajes. No digo ms para no destripar \nnada). Y es algo hipntico. Empiezas a escuchar lo que te va contando el \nprotagonista y te sientes un oyente ms en esa salita en la que se \ndesarrolla la historia. Incluso cuando hay alguna pausa te apetecera \nhacerle una pregunta.\nLa eficacia de los actores es fundamental. Con cuatro pinceladas (recordar \nque la duracin de la pelcula es de 87 minutos.) vemos que cada uno de los \npersonajes tiene su propia personalidad, bien definida algo que ya \nquerramos ver en no pocas grandes superproducciones, donde los \nprotagonistas son totalmente planos.\n\nCreo que es lo que ms me ha impresionado. Pelculas de ciencia-ficcin sin \nlas exageraciones y los efectos especiales de turno se han hecho ya \nanteriormente (citemos a Primer por ejemplo, que la comentare \nproxmamente), pero sigue siendo un plato de buen gusto ver que se siguen \nhaciendo. Saltndose los parmetros totalmente establecidos en el cine \nactual.\n\nAlgo habra que advertir por supuesto. Cuando elevas poco menos que por los \naltares una pelcula y alguien que no la ha visto se decide a verla, puede \npasar una cosa. Crear unas grandes expectativas y no encontrarlas ms \ntarde. A m me ha encantado por lo que os he comentado anteriormente. Una \nhistoria inteligente, de ciencia-ficcin, fuera de lo que vemos en la \nactualidad. Si se espera otra cosa puede decepcionar totalmente. Ah radica \nel encanto que le he visto, en ofrecerme algo a lo que no nos han \nacostumbrado.\nPor desgracia, pocas esperanzas hay que la estrenen en Espaa. Y seguro que \nsi lo hacen en dvd (ya seria un regalo de Reyes que sucediese eso) acabar \nsiendo una ms entre la mirada de productos mediocres y estpidos. As que \nrecordad su argumento, y si vais al videoclub y la veis, alquiladla. Aunque \ntambin podeis bajarla(el productor lo agradeci no?).Eso s,en version \noriginal y con subttulos. Lo cual apetecer a unos y asquear a otros por \ntener que leer.\n\n\nThe Man from Earth - Movie Trailer'
p31
aS'Best movie in history, MUST WATCH!!'
p32
aS'Masterpiece.'
p33
aS'holy fucking shity trailer'
p34
aS"That's true. But the movie is awesome."
p35
aS"what's the bethoven song that cames in this movie? "
p36
aS"No, it's really easy to write swear words, a pronoun, and there you go. It \nis just that, you look at the beauty of the human mind, the sheer beauty of \nthe fact that we exist, that we are conscious, have intelligence, and have \nadvanced to such a point as where we are today.. I know you're probably a \nbit young, and get a bit of a thrill from what's called 'trolling', but \nreally man, start working out, get yourself a fine little girl that makes \nyour heart go 'what the fuck!' and that's it. Peace "
p37
aS'u sir, are an absolute idjit !'
p38
aS"This is the best movie I've had ever watched! Serbs <3"
p39
aS'IT WAS REALLY GOOD!!!'
p40
aS'Ich liebe diesen Film z.z. mein Lieblingsfilm ! '
p41
aS"Agree about the acting, and the supporting cast was terrible. But the story \nis great. Very cheesy when it wasn't John talking about his past, but \nfascinating and thought-provoking."
p42
aS'entertaining premise and infrastructure, but practically no story \nwhatsoever. guy has met two of the most religious figures in human history \n(is one of them), and van gogh and columbus. quite laughable if you ask me. \notherwise the film becomes aptly religioncentric and depreciates \nchristianity with little clarification or sophistication to say. in \nsummary, a history teacher who claims to be from the paleolithic age \nbasically teaches history with himself in every significant moment of our \nspecies'
p43
aS'with all the comments.. im sooo confused, to watch or not to watch.. zzzz '
p44
aS"Sadly the movie industry is dead my friend, long gone are the movies with \ninnovative original plot and smart dialogue. Some very good movies to watch \nif you haven't seen are: Battle Royale (Only the 1st one),Old Boy(the \noriginal chinese ofcourse),Infernal Affairs,Primal Fear,Lilya 4 ever."
p45
aS'Hi everyone. Any movie suggestions like this one?'
p46
aS"chill out, first, the poster is like 16, .. second, he/she uses the word \n'cunt', which Americans just don't (Brits and Aussies use this word every \nsecond sentence from the age of 6). Third, if you're hating on Americans, \nyou're hating on the country that guarantees your security. Maybe, call up \nChina, and see if the Chinese are willing to hold Europe under their \nnuclear security umbrella. What's that? You don't trust the Chinese? Oh \nman, what are you going to do when the US pulls out of Europe?"
p47
aS'you were just born stupid. sorry.'
p48
aS'the BEST movie i saw for a LONG time. great work. (if anybody can direct me \nto more "good" movies id be delighted. sadly if i watch trailers for hours \ni only see cliche filled-mindless-action-pointless-love-story-hollywood \nflicks)'
p49
aS"One of the best movies I've ever seen. You owe yourself to watch this."
p50
aS'boring trailer'
p51
aS'lui?'
p52
aS'el trailer no promociona bien la peli.'
p53
aS'cant express how much i love this film'
p54
aS"Exactly! It's a great film"
p55
aS'If such a man exists on this earth, thats so wonderful. hope he would stay \nhappily forever and ever till the end of time :)'
p56
aS'Best movies I have EVER seen. I wish it were twice as long.'
p57
aS'Beethoven, Symphony 7, Allegretto, mvt 2 ( /watch?v=4uOxOgm5jQ4 ) :)'
p58
aS'great movie ^^'
p59
aS'lol yes how will the 500 milion people with a 2000 year history of war \nprotect ourselves. I have nothing against americans but you need to pul \nyour heads out of your asses!'
p60
aS'Also i almost forgot one of the best: Memories of murder.'
p61
aS'no problem, thank you'
p62
aS'Sleuth. (1972)'
p63
aS"Well, it's kinda hard to make a trailer for this movie isn't it?"
p64
aS'aaah there goes the overly religious guy... just watch the movie and shut \nup, it\'s a movie, not a blaspheme to your precious religion. it\'s fantasy \nbased. I can\'t imagine what you\'d say if you\'d watch star wars.... "OH MY \nGREAT LORD, GOD WOULD NEVER ACCEPT THIS, GOD ONLY CREATED HUMANS AS HE IS, \nBUT THERE ARE ALIENS? THIS IS BLASPHEME! LET\'S ALL GATHER AT GEORGE LUCAS\' \nHOME AND BURN HIS HOUSE"'
p65
aS'The story idiotic? Why?'
p66
aS"You're right, you are a cunt."
p67
aS"ok say its fantasy, the writers were made sure the the historical figures \nthat (john?) met were self selective, eg. Buddha, Columbus, Van Gogh, \nprobably more that I missed. He is aptly Jesus himself. That is a \nconvenience script, and undermines the significance of history (fantasy) \nitself. Im sorry for you if you appreciate second rate entertainment. \nAlso, the film chose to be overly religious, not him. It had a lot of more \npotential that could've been non-religious. and star wars? wut? "
p68
aS'this movie is so good'
p69
aS"Wow. Your post really boggles my mind. That's the best you can do? I can't \neven respond. It's a wonder you can even feed yourself.."
p70
aS"I love this movie! It is so true, I can't even put it in \nwords...excellent!! :) "
p71
aS"Wonderful script (among the best I've ever seen), terrible everything else."
p72
aS'Sorry for this moron. He represents the 99%.'
p73
aS'Thanks!'
p74
aS'Wonderful story! totally wonderful!!! '
p75
aS'For me this movie suck no action ... '
p76
aS'Hollywood making European Smart Movies.. I already watched this MASTERPIECE \nmore tha n10 times since it came out as DVD. It was thanks to emule and \ntorrent that people become aware of this masterpiece!'
p77
aS'I watched this some years back and thought it was very interersting and \nunique. now I watched it again and still absolutely loved it.'
p78
aS'Excelent movie'
p79
aS'I absolutely adore this film, when i watched it a few years ago i was \nactually blown away'
p80
aS"SPOILERS! Many atheist's say, they believe in themselves only (as do I). I \nwonder if John said that, would he be believing in Jesus Christ and in turn \nChristianity. It's kind of a wordplay paradox."
p81
aS"I really loved the movie. But the trailer sucks donkey balls. It doesn't \nshow how amazing the movie is. I recommend this movie for People who can \nstand listening to a man talking about his long life."
p82
aS'I am missing those days.. :( - John Oldman'
p83
aS'nice movie, a mind stimulating one.'
p84
aS"well he's right about the acting. only the biologist was a good actor. the \nrest were worst than just bad. BUT, however, the story of the movie was \nTHAT good and immersive, that after some time you didn't give a shit about \nthe acting, you only cared for what's next... and that is what makes a good \nmovie imo, so I didn't care about the acting that much. Well, if it had \nbetter acting it would be a bonus tbh, but who cares? It was THAT good that \nit didn't matter, and that's rare, VERY rare"
p85
aS"I didnt expect a movie that is mostly just conversation would be so \nawesome, like other said, trailer sucks, movie's awesome!"
p86
aS'If you like philosophical questions and wonder how we came to what we are \nand what the purpose of life is, then watch it.'
p87
aS'8 actors , 1 room , 1 camera and perfect story is enough for a good \nmovie...:) '
p88
aS'lame... '
p89
aS'Not all the so called facts are true or valid discussed in this movie. You \nmay be critic when watching this as their existentialism, philosophical and \nhistorical issues are unfolded and discussed.'
p90
aS"A movie with no action, no special effects or special areas..Just a man \ntalking in a room..I never could've imagined that I would find it one of \nthe greatest movies EVER!"
p91
aS'Movie rules, trailer sucks.'
p92
aS'most mind boggling 90mins of my life.'
p93
aS'WATCH IT!'
p94
aS'12 Angry Men'
p95
aS'controversial movie but a good watch.'
p96
aS'An impromptu goodbye party for Professor John Oldman becomes a mysterious \ninterrogation after the retiring scholar reveals to his colleagues he never \nages and has walked the earth for 14,000 years.\n\nhttp://www.imdb.com/title/tt0756683/?ref_=sr_1'
p97
a.