(lp0
S'it will never be as great as Fast and Furious'
p1
aS'No one can be batter than Fast and Furious.'
p2
aS'Jesse what are you doing there?'
p3
aS'do not watch this crap'
p4
aS'Was een leuke film BITCH net zo goed acteer werk als breaking bad yo'
p5
aS'Ik heb al film gezien mooi film met bloed en sex'
p6
aS"WHERE'S MY MONEY BITCH?!"
p7
aS'waste of money'
p8
aS'so bad'
p9
aS'We hebben de film gezien in de bios\nHij was leuk'
p10
aS'the hero in this movie is a total letdown.Dont eve know how to act.'
p11
aS'     ????!!!'
p12
aS'i have seen da movie it is purty cool'
p13
aS'who is a guy who speck speck ?? what his name ?? he is actor ???'
p14
aS'jessie pinkman!!!! hell yeah'
p15
aS'de lujo'
p16
aS'Estos trailers te muestran toda la pelicula, ya se me fueron las ganas de \nverla, ya se toda la peli'
p17
aS'Jesse Pinkman yo'
p18
aS'Already convinced at 0:40'
p19
aS'BR BAD <3'
p20
aS'Imogen Poots is so bad in this one...if you see the hospital science then \nyoull get what I mean hahaha! ^_^ cant be taken serious... '
p21
aS'It is a good picture'
p22
aS'nice '
p23
aS'soo easy'
p24
aS'nfs the run story is better than this'
p25
aS"6 parts of Fast and Furious weren't enough, world needs shitty ripoffs as \nwell."
p26
aS'I recommend it Its a great movie, I saw it last night In 3D it was amazing.\n'
p27
aS''
p28
aS'this is goona be something worth wathing after all the other dreadful \nreleases of 2014'
p29
aS'   ?'
p30
aS'This movie is better then fast and the furious in some ways i hope they \ncontinue making fast furious but also need for speed 2 perhaps and \nhopefully they do these race movies are my favorite'
p31
aS'aaron paul van breaking bad!!!'
p32
aS'Vette trailer'
p33
aS'JESSIE (Acteur van Breaking Bad) in een auto! \nHOLY SHIT. ! Must see! :D'
p34
aS'dit is gewoon een andere versie van Fast & Furious '
p35
aS' We hebben de film gezien heel gaaf\n'
p36
aS"just watch this it's a good"
p37
aS'wat een gore kut film!!!!'
p38
aS'JESSIE VAN BreakingBad super niceee'
p39
aS'GAYEST MOVIE EVER'
p40
aS'Net gezien in de bios. 1 van beste films ooit'
p41
aS'AWESOME!!!!!'
p42
aS'Hurrnsohn u d wixxschneke\n'
p43
aS'wat een klote film'
p44
aS'Butterflies And Hurricanes <3'
p45
aS"What's song,1.34?"
p46
aS"...and I won't be harassed..... BITCH...."
p47
aS'Ko c Paul lm NFS d hn ...'
p48
aS'Ik moet er heen!!!!'
p49
aS'I really went in with an open mind to see this movie....and after the pain \nof watching this cinematographic masterpiece was over, all I can say is \nthat in order for this movie to make any and I do mean ANY kind of sense \nyou need first to:\n1-get a brain tumor in half your brain.\n2-lobotomice the other half of your brain.\n3-be sure to take plenty of drugs like the blue crystal meth Jessy used to \nsell and be on the brink of an overdose.\n4-get married and then get a divorce.\n5- and the number 5th thing you need to do to watch this movie is: \ndrums.......watch all the complete series of fast and furious...just to get \nwarmed up for this beauty.'
p50
aS'epicness'
p51
aS'Ik verheug me al een half jaar op deze film, ik heb de trailer al tig keer \ngezien :P ik speel super veel need for speed, ik moet hem zien.'
p52
aS'Must see '
p53
aS'NU LIVE OP SLAMFM!'
p54
aS'De game is leuk hopelijk de film ook'
p55
aS'vet noen om bra side man kan se filmer p IPAD\npc'
p56
aS'Need for Speed, bitch!'
p57
aS'European car!'
p58
aS'Assistimos, Simplesmente FANTSTICO!!! Sem apelao, trilha sonora, cenas, \ncarros, atores, histria,.....incrvel, incrvel!!!!!! \nVale cada real gasto. Em 3D claro. '
p59
aS'Ini keren banget'
p60
aS'Muse - Butterflies and Hurricanes'
p61
aS'niiiicceeee'
p62
a.