(lp0
S'gox gozel'
p1
aS'this is real Taxi not american shit!'
p2
aS'Franzsisch Peugeot ad kaum machen Hautausschlag!!!!!! '
p3
aS'taxi 4 francais de luc besson lien torren cpasbien.com'
p4
aS'taxi 4 80 % francais 100 % marseiller ! '
p5
aS'ela filmdir '
p6
aS"Avec Naceri l'gorgeur , il devrait tre interdit ce film !"
p7
aS'  ?        ? '
p8
aS'czy kto poda liste piosenek z taxi 4?'
p9
aS'50 cent.. you failed!'
p10
aS'taksi4 '
p11
aS'Does anyone knows the name of the song when in the scene @ 0:10 in the \nmovie??? Plz HELP I cant find it :/'
p12
aS'wietny film!!! :D Nie mog z Giberta '
p13
aS"I can't find this film in English... :("
p14
aS'espaol porfavooooorrrrrrrr '
p15
aS'orange! =) '
p16
aS'bon montage !!!'
p17
aS'MaGniiFiiQue '
p18
aS'@fredihundert ti si pedal '
p19
aS'coxxxxx iyiiiiiiii '
p20
aS'3:25 '
p21
aS'jakom ma nazwe ta piosenka '
p22
aS'nice video :)'
p23
aS'q buen video!!!'
p24
aS'najjj snimak i pesma! '
p25
aS'Whats the name of this movie?'
p26
aS'haha lol its my car ;)'
p27
aS'magaria'
p28
aS"J'm 500000 !!!!! XD"
p29
aS'super la videos '
p30
aS'Super film '
p31
aS'ce film pour gamin de 8 piges'
p32
aS'nice car tho '
p33
aS')))))'
p34
aS'@sharo90 i agree americans made a PARODY from taxi =/'
p35
aS'now this is a taxi'
p36
aS"haha, every car is a peugeot in this clip, but I don't mind, pug's are the \nbest"
p37
aS'@DjAlexT92 50 Cent - Candy Shop :D'
p38
aS'@Estorization 50 cent - candy shop'
p39
aS'nada a ver musica no tem nada ver noob da porra '
p40
aS'@Estorization 50 cent - candy shop '
p41
aS'@kamikadzeproelo Yes dude.. kurwa ty jeste polakiem'
p42
aS'Extra... '
p43
aS'ptdr'
p44
aS'De Snoepjeswinkel!'
p45
aS'@sullyvandu02 le nom c candy shop'
p46
aS'yo tengo este auto, amoo mi 407!! = )'
p47
aS'fuckin 50cent FUCK YOURSELF'
p48
aS'az bramke z miotlo z boiska'
p49
aS'got rice anyone'
p50
aS'bullshit level French :D'
p51
aS'wow\n '
p52
aS'como se llama la cancion que suena en el bideo'
p53
aS'i need help\ni need muisic of taxi 4\nthank'
p54
aS'pas cool ta video  on entent pas les paroles et pourquoi ta pas mi le film \ncomplet '
p55
aS'2'
p56
aS'eladi ela'
p57
aS'music name ?'
p58
aS'\n3'
p59
aS'filme good very good,gisele and .....'
p60
aS'these  scene from taxi 2 ;)'
p61
aS'ela avtosdu'
p62
aS'ben vidiou taxi 4\n '
p63
aS'ELa blaaa'
p64
aS'superrrrrrrrrrrr  surursen halaldi'
p65
aS'does anybody know the song when daniel enters  "MARLEY\'S" office??? is like \nreggae or something.. but maybe it could be a rap song also ..... anyway \nthanks !!!!!!!!!! '
p66
aS'ela duzeldib'
p67
aS'donde puedo ver esta pelicula?'
p68
aS'i l the move\n]'
p69
aS'der kann auto fahren'
p70
a.