(lp0
S"How does this compare to the original?\n\nWas a big fan of the original but I'm unsure if I should watch this and the \nsequels :x"
p1
aS'death race>twisted metal'
p2
aS'PRODIGY'
p3
aS'one of my favorite movies :) awesome!'
p4
aS'imagine vin diesel in death race 4?'
p5
aS'love death race ! when death race 4 become ?'
p6
aS'1:59 gta san andreas sounds :)))'
p7
aS"Well, this trailer is a spoiler. Don't watch till the end "
p8
aS'So Hunger Games is kind of like this'
p9
aS'Guns & roses'
p10
aS"Doesn't really seem as interesting as the 75's movie. And it's not very \nusual coming from me, since movies older than 90's are not very watchable \nto me. But in the original version of this movie, it was a competition of \nwho took the most innocent lives, which is sick yet thrilling. And this \njust seems all about cars and explosions... Can't judge since I haven't \nwatched the movie yet, but it's kinda hard to get into the mood of watching \nthis when I'm under the impression that it's just like I'm predicting. \nPlease, correct me if I'm wrong. D:"
p11
aS'It.s red hot man'
p12
aS'dman, this movie looks awesome :D'
p13
aS'prodigy - hot ride'
p14
aS'such a good movie unlike the other 2 sequels'
p15
aS"I didn't like the way they showed the blood :s "
p16
aS'better than Death Race 2 & 3'
p17
aS'This is better than 2 & 3 cuz its statham!'
p18
aS'Waoohhaohh!! Watched the trailer, that looks awesome! Thanks man!'
p19
aS'the movie is set in 2012 not 2020'
p20
aS'it would be so good if Vin Diesel was in this movie '
p21
aS"She didn't create Death Race"
p22
aS'anyone know the name of the song/soundtrack bit that plays at 1:20'
p23
aS'This one should have been the 2nd one and the 2nd one should have been the \n1st one.'
p24
aS'This is such a good film. Loved it :)'
p25
aS'dafuk? what kind of jail is this!'
p26
aS'I love the title. Not a Jason Statham movie, an Ian McShane movie XD'
p27
aS'meh you know people ant there imagination ^-^'
p28
aS'Said no one ever. '
p29
aS'MASHED'
p30
aS'WELCOME TO THE JUNGLE !!!!!!!'
p31
aS'Very FUCKING HERRONICAL to watch and listen to people lol.'
p32
aS'Good movie'
p33
aS'mustang '
p34
aS'wessoomeeeeee'
p35
aS'holy shit this is a twisted metal movie :O'
p36
aS'greatest trailer.. ever'
p37
aS'cant beliv theres 2 seqels already, this looks like shit'
p38
aS"Can't believe they pretty much gave away the ending. Wow. Trailers nowadays \njust give it away,"
p39
aS'2013* ;))))'
p40
aS'xD.'
p41
aS'It reminds me gladiators. Wild culture of wild west is destroying the world.'
p42
aS"For what reason Account with 1 Dislike create other 9 accounts and click \ndislike nine times! It's horrible!"
p43
aS'Jason Statham vs Vin Diesel in FAST AND FURIOUS 7..amazing!!'
p44
aS'Movie is so predictable! From just this trailer i know story. So, too many \ninformations.'
p45
aS'i wanna see this film '
p46
aS'=) '
p47
aS"Hate it when trailers sow you the whole film, don't need to watch it now"
p48
aS'what do you expect? after all is the fucking transpoter himself...'
p49
aS'twisted metal- play it'
p50
aS'Holly shit it appears Toretto is in serious issues with this guy'
p51
aS'That should be part 3 cause 14k survived in part 2 and 3 now 14k died in \nthe first one'
p52
aS'i am watching now yau'
p53
aS'its funny how they got guns on cars but cant break out of the prison'
p54
aS'what?'
p55
aS'Gas Guzzlers: Combat Carnage is best car combat game. Forget about twisted \nmetal.'
p56
aS'2:00 that song reminds me of GTA S.A. XD'
p57
aS"There's litterally no difference between this and the second one. the \nsecond one just had better actors, what the actual fuck?"
p58
aS"It's like freakin twisted metal , Oh man awsomeeeeeeeeee!!!"
p59
aS'Wrong that is Jason Statham, Diesel never appear in this or the secuel'
p60
aS'BEST RACE MOVIE ever! Race to death huh'
p61
aS'wonder ful'
p62
aS"Gun N'Roses Sound Welcome To The Jungle"
p63
aS"1 Dislike, Someone's going to hell :P"
p64
aS"It's called, uh, security? They're on a prison island, and the guards have \na fucking Truck / tank hybrid?"
p65
aS'foursomeeeeeeeeeeeeee'
p66
aS'Why watch the movie? I just saw the whole story arc on the trailer.'
p67
aS'prodigy - hot ride ... HELL YEAH !!!!'
p68
aS"Statham's presence increases the awesomeness by 10!"
p69
aS'8 more with him..'
p70
aS'Death Race 2 and 3 were prequels to Death Race.'
p71
aS'Really a good movie! When I saw this trailer then decided that I need to \nwatch the movie again )) Still looks great in 2012!'
p72
aS"Now they're gonna do a threesome in hell. :P"
p73
aS'really bad trailer indeed!'
p74
aS"Very cool and intense movie. Jason Statham was brilliant here. He's the \ngreatest action star of modern days Death Race is one of my favorite \nSci-Fi/Action films from the 2000's (along with Pandorum, Gamer, Serenity, \nPush, Children of Men, Resident Evil: Apocalypse, The Chronicles of \nRiddick, Minority Report, Equilibrium, Ultraviolet, X-Men, The 6th Day, The \nTournament and Eagle Eye) "
p75
aS"Someone's gonna join him... :P."
p76
aS'Hang on to yer Helmet.'
p77
aS'Love it vin diesel'
p78
aS'DEATH RACE (Bioskop Trans TV 21:30 Hari ini 26 Juni 2013)\nLihat jadwal lengkapnya di www.jadwaltelevisi.com'
p79
aS'Death Race= lm Yar..\nFilm 2008 Abd-Birleik Krallk-Almanya yapml,Bilimkurgu-Aksiyon-Gerilim \neli ve 105 dakika..Bugne kadar 3 blm halinde ekilmi film..Bu blm \nserinin ilk blmdr..Hatrlayalm bu filmleri..\n\nDeath Race -2008\nDeath Race 2 - 2010\nDeath Race 3: Inferno 2012\n\nFilmimiz David Carradine ve Sylvester Stallone\'nin barollerini \npaylat,1975 yapm Death Race 2000 adl sinema filminin yeniden \nevrimidir..Filmimiz,bir bakma bilgisayar oyunlarnn sinemaya \naktarlmasnn tersi bir durum mevzu bahis.Sanki sinemay bilgisayar \noyununa adapte etmiler gibi...Film boyunca izleyici mtemadiyen bir video \noyunu oynuyormu hissini yayor.Deiik aamalarla dolu yar, bilgisayar \noyunlarn andryor.rnein ;Aralardaki silahlarn yol zerindeki \nsimgelerin zerinden getikten sonra kullanlabilir olmas gibi zellikler \nmevcut..\n\nDier yandan gelecekte bir zamanda,yolu hapishaneden geen bir \nfilmin,mutlaka olmazsa olmaz baz durumlar olduunu da bu filmde \ngryoruz..( Bugnde genelde bu tarz filmlerde ayni deil mi ? ) Hapishane \nmdrnn ok ama ok kt bir insan olmas,Cezaevine den kahramann \nhemen markaja alnarak kavgaya srklenmek zorunda braklmas,zgrlne \nkar baz ar bedeller demesi gibi..\n\nSonu olarak filmden beklentimiz, srkleyicilik,hz ve biraz da elenceyse \ntamam bu film bize bunlar veriyor..Film de zaten bir aksiyon filmi \nolduundan belki dier zayflklar grmezden gelinebilir.Final de zaten \nbeklentilerimiz karlayacak bir sonla nihayete eriyor.." te ntikam \nbyle alnr " Diyeceksiniz..Aksiyon sevenlere iyi seyirler 8/10'
p80
aS'DEATH RACE (Bioskop Trans TV 21:30 Hari ini 26 Juni 2013)\nLihat jadwal lengkapnya di www.jadwaltelevisi.com'
p81
aS'DEATH RACE (Bioskop Trans TV 21:30 Hari ini 26 Juni 2013)\nLihat jadwal lengkapnya di www.jadwaltelevisi.com'
p82
aS'DEATH RACE (Bioskop Trans TV 21:30 Hari ini 26 Juni 2013)\nLihat jadwal lengkapnya di www.jadwaltelevisi.com'
p83
aS'Death Race is a very good car action movie, it has some very good car \nscenes. \nLoved it 5 out of 5 stars. :)\nBuy it here: \nhttp://rcm.amazon.com/e/cm?t=httpwwwfa0881-20&o=1&p=8&l=as1&asins=B001Q4Z5UY&ref=tf_til&fc1=000000&IS2=1&lt1=_blank&m=amazon&lc1=0000FF&bc1=000000&bg1=FFFFFF&f=ifr\nWatch the trailer here: Death Race Official Trailer #1 - Ian McShane Movie \n(2008) HD'
p84
aS'DEATH RACE (Bioskop Trans TV 21:30 Hari ini 26 Juni 2013)\nLihat jadwal lengkapnya di www.jadwaltelevisi.com'
p85
aS'DEATH RACE (Bioskop Trans TV 21:30 Hari ini 26 Juni 2013)\nLihat jadwal lengkapnya di www.jadwaltelevisi.com'
p86
aS'DEATH RACE (Bioskop Trans TV 21:30 Hari ini 26 Juni 2013)\nLihat jadwal lengkapnya di www.jadwaltelevisi.com'
p87
aS'DEATH RACE (Bioskop Trans TV 21:30 Hari ini 26 Juni 2013)\nLihat jadwal lengkapnya di www.jadwaltelevisi.com'
p88
aS'DEATH RACE (Bioskop Trans TV 21:30 Hari ini 26 Juni 2013)\nLihat jadwal lengkapnya di www.jadwaltelevisi.com'
p89
aS'DEATH RACE (Bioskop Trans TV 21:30 Hari ini 26 Juni 2013)\nLihat jadwal lengkapnya di www.jadwaltelevisi.com'
p90
aS'DEATH RACE (Bioskop Trans TV 21:30 Hari ini 26 Juni 2013)\nLihat jadwal lengkapnya di www.jadwaltelevisi.com'
p91
a.