(lp0
S'I love Ray Romano '
p1
aS'Nicki Minaj her character is named Steffie not Hailey.'
p2
aS'Ice Age movies? Keep em rolling !! '
p3
aS'DrakeEthan Nicki MinajHailey Ester DeanSloth Siren Jennifer LopezShira \nKeke PalmerPeaches Nicki Minaj voices a Woolly Mammoth named Hailey. But \nmessing up, he accidently makes Sid, Diego, and Manny to set off drift. \nDiego later finds love wih a Saber Tooth named Shira (Voice by Jennifer \nLopez). Later they encounter animal pirates. Throughout the movie, new \ncharacters are revealed like Ethan (Voiced by Drake) '
p4
aS'Um continental drift occurred before the Ice Ages'
p5
aS'HAHA! XD!'
p6
aS'I was looking forward to watching this but then I found out that Nicki \nMinaj and Jennifer Lopez are in it !!! NOT FOR MEEE.'
p7
aS'i was gonna wait till the movie came out on DVD but whene i heard nicki was \nin it, i wanted to see it in the movies right when it came out! im so \nexcited for tomorrow. YAY NICKI MINAJ'
p8
aS'@MultiHollywoodYoutub making money'
p9
aS'Why did Sid say:holy crap'
p10
aS"I'm here for HeMo <3"
p11
aS"I'm just hear for nicki"
p12
aS'She has multiple personalities (impersonations) how would you know if you \nheard her or not? '
p13
aS'I thought Sid said Holy Crap'
p14
aS'LOL! Scart the squeriil cause the end of the world, thas a good example to \nstart the film!!'
p15
aS'Right! Thank you! :D'
p16
aS'HEMO'
p17
aS'JNxmz'
p18
aS'Ice Age: Continental Drift (2012) at iwantmovies.info'
p19
aS'one of peaches friends'
p20
aS'@ThebigPYRO'
p21
aS"Oh yea Drakes Name is Ethan and Nicki's mammoth name is Steffie"
p22
aS'who sings this version of this song??'
p23
aS"In what moment talks Nicki Minaj? I didn't hear her..."
p24
aS'Nicki Minaj plays a mammoth named Hailee, Drake Plays a mammoth named Ethan'
p25
aS"In what moment talks Nicki Minaj? I didn't hear her..."
p26
aS'Nicki Minaj plays a mammoth named Hailee, Drake Plays a mammoth named Ethan'
p27
aS'Is heather morris in this? What char she playing?'
p28
aS'Ice Age: Continental Drift (2012) at iwantmovies.info'
p29
aS'Ohh Okay! hahah Thanks =)'
p30
aS'Who is drake??'
p31
aS'So Drake, Nicki, And JLo Huh Ok This Orda Be Good'
p32
aS'wanda sykes'
p33
aS'Loki!'
p34
aS'drake is an elephant and nicki minaj is one too my sister told me'
p35
aS'SHUT UP FOO.'
p36
aS'That\'s exactly what I did! I saw "Brave" a few days ago, and during the \ntrailers, when they said Nicki Minaj was gonna be in this movie, I almost \nscreamed!'
p37
aS'Went to see "Brave" today. Felt like SUCH a goober when they mentioned \nNicki Minaj in this trailer and I gasped and then proceeded to quickly slap \nmy hands over my mouth and start laughing because dear god it was pathetic'
p38
aS'Your welcome :)'
p39
aS'Here for Nicki'
p40
aS'What is this? The 10th movie?'
p41
aS'which one is josh peck?'
p42
aS"Someone help me!I can't stop watching trailers!This is torture,cause I want \nthis movie to come out so bad!"
p43
aS"I can't wait for this movie...especially heather morris on it. <3"
p44
aS'then what is it'
p45
aS'0:55 LOL. WOW'
p46
aS'Who does heather play'
p47
aS'I heard nick minaj is in this movie thats why i watch the trailer.. No sign \nof her voice though.'
p48
aS'Real mammals wassup'
p49
aS'which one is josh peck?'
p50
aS"Someone help me!I can't stop watching trailers!This is torture,cause I want \nthis movie to come out so bad!"
p51
aS"I can't wait for this movie...especially heather morris on it. <3"
p52
aS'then what is it'
p53
aS'HOLY CRAB!'
p54
aS'0:55 LOL. WOW'
p55
aS'Who does heather play'
p56
aS'I heard nick minaj is in this movie thats why i watch the trailer.. No sign \nof her voice though.'
p57
aS'Real mammals wassup'
p58
aS'I just learned about the continental drift in science O.O awesome!!'
p59
aS'where tf was drake..? '
p60
aS'i cant wait till this comes out!! :D'
p61
aS"I paused and rewinded the character Louis's part. He's just so cute >w<"
p62
aS'im here for nicki minaj and drake'
p63
aS'it is peaches'
p64
aS'NICKI MINAJ PLAYS PEACHES IN ICEAGE 4'
p65
aS'anger managment LOL!'
p66
aS'THANKS!'
p67
aS"I'm just here for Heather Morris!! "
p68
aS'Greaaaat people only came here for Nicki Minaj and Drake'
p69
aS"right! I've been lookin for it but i cant find it. :("
p70
aS'Nicki Minaj'
p71
aS'@brenda nicki minaj is steffie'
p72
aS'i dun get it'
p73
aS'im here for nicki minaj and drake'
p74
aS'it is peaches'
p75
aS'NICKI MINAJ PLAYS PEACHES IN ICEAGE 4'
p76
aS'anger managment LOL!'
p77
aS'THANKS!'
p78
aS"I'm just here for Heather Morris!! "
p79
aS'Greaaaat people only came here for Nicki Minaj and Drake'
p80
aS"right! I've been lookin for it but i cant find it. :("
p81
aS'Nicki Minaj'
p82
aS'@brenda nicki minaj is steffie'
p83
aS'i dun get it'
p84
aS"I saw the movie already -_- it says 'Nicki Minaj as Steffie' in the \ncredits. Not Hailey."
p85
aS'Sid says Holy Crap perfectly :D Peaches actually looks cute :3'
p86
aS"What ever wiki says.. go's -.-"
p87
aS'Here for Heather Morris'
p88
aS'So excited for this..'
p89
aS'nicki minaj is in this one'
p90
aS'That moment you are watching trailers on youtube and you want to click them \naway.. than you realise you did it on purpose.. '
p91
aS"Finally a girlfriend for diego! It's about time!"
p92
aS"I only came here because I heard Nicki Minaj was in Ice Age 4 thats why I \nwatched the trailer. I can't even heard her voice. "
p93
aS'Who does heather Morris from glee play'
p94
aS':3 im here because the movie is awesome andnnot just because on fucking sar \nis in it =.='
p95
aS'no she plays one of peaches friends i just dont know her name'
p96
aS'which one is Steffie??? pls answer back :D'
p97
a.