(lp0
S'antichrist in Arabic mean dajal, a satan, worshippers of devil are with \nhim, ILLUMINATI! the reason for that is to see the antichrist, who will \ncome out when the sun rises from the west, also said on the quran, the day \nwill come when the sun rises from the way it sets (something like that), \nand also think of the the word, Anti-Christ, its about christ but ANTI! I \nam not a christian nor do I worship devils! I am aswell not a zionism, \nBEWARE OF ILLUMINATI! They can kill you for the sake of devil.'
p1
aS'This movie was psychologically terrifying. I finished watching it with a \nhuge sense of dread. '
p2
aS"Weirdest porno I've watched."
p3
aS"Wow all these comments seem to be focused on the woman's clit. And I'm \nsitting here wondering why it's called the Antichrist instead of the \nAnticlit (that's sarcasm). Ima have to watch this to find the real \nperspective of the film or if it really is just about a clit."
p4
aS'Wow, that is such wonderfully grotesque art! Bravo'
p5
aS'Okay wtf did I just watch I watched this trailer after I played beyond two \nsouls and it put me off everything OMG ewwww I feel sick '
p6
aS"This movie was the most terrifying thing I've ever seen. Not because of the \nvisuals, which were subpar. Not because of the story, which was shit. Not \neven because of the performances of the actors, as in two because there \nwere only two actors in the entire movie. No the reason this movie was \nterrifying is because you get multiple shots of Willem Dafoe's penis. Not \njust glancing shots, no I'm talking full on porn quality shots of Green \nGoblin willy and nut sack, including one where it ejaculates blood."
p7
aS'Dafuq was this movie.'
p8
aS'I loved Melancholia but this was fucked up on so many levels.'
p9
aS'one of the most horrible films ever !!'
p10
aS'anticlit. :) seems to be the right name \nI think lars von trier  hates women\nbut still the best. '
p11
aS'One of the best movies Ive seen in a very long time'
p12
aS'Wow. i just got brain fucked'
p13
aS'so this rated TVMA'
p14
aS'Why did she make her son wear his shoes on wrong feet? Did she really see \nhim fall from window? Anyone give me insight into movie? I enjoyed film, \nremember seeing the kingdom years ago and thought that was really different \nand great.'
p15
aS'i really cant believed it that other people have the right to make this \nkind of movie. very disappointed with this. Jesus Christ is our saviour He \nis our "The way, The Truth and The Life" we are all sinners I really cant \nbelieve why other people still don\'t have faith with Him no matter what \nhappen when the time has come we will still calling his righteous name \nJesus Christ even if you are AntiChrist.'
p16
aS'Anybody else love this film?'
p17
aS'Sentimental nonsense. Nothing terrifying only ridicoulous.'
p18
aS'Hey youtubers! I am a big fan of horror films and someone recommended me \nwatch "Antichrist" but as I can see from the comments and critics, there is \nmuch controversy. I have no problem with watching terrifying scenes but I \ndon\'t want to see anything disturbing or disgusting. so please could \nsomeone explain to me what the plot is and what kind of "shocking scenes" \nare these everyone is talking about? Thank you in advance :) '
p19
aS'no es solo una pelicula de terror, admite otros analisis que solo eso, \ndentro de un contexto mas realista que solo el genital! por lo que veo en \nlas criticas'
p20
aS"one of the most beautifully shot and also one of the most disturbing movies \ni've ever seen"
p21
aS'I have been brain fucked!'
p22
aS'ANTICHRIST IS ACTUALLY HORUS THAT IS BORN AGAIN INSAIDE JEWISH DYNASTY \nCALLED MEROWING  WITH POWER OF ARTIFICIAL INSEMINATION NOW THEY CALL HIM \nDAWID WALTER KAISER FOKFELER HE IS BORN AT YEAR 1996 IN RUSSIA.WHY HORUS \nWELL BECAUSE HE IS ONLY PHARAOH THAT HAVENT MOTHER CUZ DEVIL CREATE HIM ON \nATLNATIS BEFORE MORE THEN 4000 YEARS.HORUS CREATE SECRET SOCIETY THAT RULE \nOVER WORLD EVEN NOW NAME IS CULT OF THE SUN.30 MEMBERS ALL LIVE IN SAN \nFRANCISCO.'
p23
aS'Gus movie anyway but stupid actor'
p24
aS"It's funny to see al the US comments.\nThe people who never get in touch with a movie that not only tries to make \nmoney. \nThis movie comes close to pure art.\nFuck Hollywood. Distasteful..."
p25
aS"i have read some comments and i noticed that there are angry women from the \nclit scene and some over 9000 pussy slave men that agree with them cause \nthey are pussy slaves and that men should always agree...i don't agree  \nthis movie was good  was so shit....oh god give me the strength to leave \npeacefully among so many idiots (70%) in the earth...."
p26
aS'Poor Lars, this was a desperate cry for attention  " cue Danish accent\'\'  I \nmahst sink ahf sumsing controhverseeahl  becoze eye knowah am azuh gud az \nDavid Lynch unt his focking mozerfocking twinn peakz \'\' Lars Von Triers is \nthe Damien Hurst of film Directors. '
p27
aS'*Watching this again . . . . . in bigger screen.*\n\n*"Antichrist"  The  Movie.*\n\nThe impression I get is that the film takes as its premise that monotheism \nat its sexist worst (ie look at how fundamentalist jews, muslims, and \nchristians treat women) is literally true because there is a sexist god \nthat commanded all this evil stuff (and this god is evil), but satan, the \nrival, is also evil. so basically, too bad for humanity. the acting in this \nfilm is terrifying and amazing. same with the cinematography.\n.'
p28
aS'What clit scene? Where is the clit scene? Someone point it out!'
p29
aS'So why is it called Antichrist?'
p30
aS"When is Lars Von Trier going to do a romantic comedy? Let's see him do a \nspin on that one and bonus points if he casts George clooney. "
p31
aS'when christians make a movie...'
p32
aS'1:57 shemale making him ride!!!'
p33
aS'No es de horror... El anticristo es algo ms complejo, no es un ente, es \nparte de nosotros... De nuestros miedos y desgarros en el alma. Aunque es \nshockeante, se ve verdadera mierda por televisin y en las pelculas \n"comunes".'
p34
aS'\nJahBulOn-> Kabbalah->Pagan->Knights templar->the Knights of \nMalta->Freemason->skull&Bones and more \n\nYou all are Invited to our Ritual (finally we r out do all the members and \nthe world) hahahahahahaha\n\nAre you coming???  LOL'
p35
aS'this is CRAP.'
p36
aS"I'm sure the tree humping at the end of trailer prevented this from going \non as a advertisement on TV nor discovery channel "
p37
aS'thanks for the spoilers :('
p38
aS'This movie ought to be a PSA for abstinence. '
p39
aS'"chaos reins" '
p40
aS'Fucked up -.-'
p41
aS' '
p42
aS'+Onmysheet : Salo is garbage. Nothing but shock cinema with no redeeming \nqualities.'
p43
aS'What if she was dead after the funeral and William just talking his dead \nwife and punish his self for his wife death an son'
p44
aS'I can not masturbate without thinking of a certain scene in this movie.... \nSo fucked up... Thanks Netflix suggestions '
p45
aS"Probably the scariest movie I ever watched. I don't recommend it; it got me \ndistracted 3 weeks after seeing it one year ago. It doesn't matter what \nothers say, this movie was sheer art, but I don't have the guts to watch it \nagain. After a year, I still get shivers down my spine only when I think \nabout it."
p46
aS'the woman was ugly but the kid was cute.why did she cut off her clit?the \nclit scene was most disgusting and disturbing.'
p47
aS'It has been three or four years since I have seen this film, and it still \ndisturbs me. No, it isn\'t scary in the typical "horror movie" kind of \nway...but it is terrifying in the mental and spiritual sort of way.  No \nghosts or monsters.  I interpreted it as the struggle of a woman attempting \nto deal with her own sexuality, failures as a mother, natural instincts and \ndrive, femininity, the label of women as being the source of all evil, \netc., as well as her husband\'s attempts to "treat" her without really \nhearing or understanding her. It is art, and beautifully done.'
p48
aS'can someone explain this movie to me? o.o'
p49
aS'Antichrist 1 John 2:18\n"the King" Dan 11:36; Isa 8:21; 30:33; 57:9\n"the Man of Sin" 2 Thes 2:3\n"the Son of Perdition" 2 Thes 2:3\n"that Wicked" 2Thes 2:8\n"the fallen Star" Rev 9:1\n"the Second Beast" Rev 13:11-18\n"the False Prophet" Rev 16:13; 19:20; 20:10\n"the Foolish and Idol Shepherd" Zech 11:15-17; Psa 14:1; Psa 53;1\n"the Bloody and Deceitful Man" Psa 5:6\n"the profane Wicked Prince of Israel" Ezek 21:25\n"the Prince of Tyrus" Ezek 28:2 \nPsalms 10 gives us a moral description of the character of this man.  '
p50
aS"The trailer alone is terrifying. I'm here because of Nymphomaniac"
p51
aS'Green goblin, what are you doing in there'
p52
aS'this movie was not that shocking ..wtf you are all pussy? a serbian movie \nthat was a shocking movie'
p53
aS"Charlotte Gainsbourg is far from being ugly. With that being said, I'm off \nto watch this masterpiece again."
p54
aS"It's the green goblin"
p55
aS'Um...I hate 1:51.... :o '
p56
aS'I love this film'
p57
aS'Es una JOYA de PELCULA, es un grande Lars, un maestro del sptimo arte'
p58
aS'Um...I hate 1:51.... :o '
p59
aS"Great movie. You'll think about it for days."
p60
aS'What the @#$! did I just watch????? '
p61
aS'Change the lyrics of "sexy and I know it" from "wiggle" to "nigger":\n\nNigger nigger nigger nigger nigger yea! Nigger nigger nigger nigger nigger \nyea!! '
p62
aS"They used a dick double because Willem's was simply too big and would \nprobably make most male viewers feel unhappy .... so damn funny. ^^"
p63
aS'Fuck the end of that trailer!'
p64
aS'I feel mindraped by watching this film... Wow.... I really have no idea \nwhat this meant.... I feel violated.... Wow.... '
p65
aS"yea didn't really understand this movie...the ending went way over my head"
p66
aS'boring af. dont get why this has so many good reviews. and i dont get hows \nthis suppose to be so "artistic" or "beautifull.'
p67
aS"The CATHOLIC POPE IS ANTI CHRIST NOT OBAMA\n\nANTI CHRIST is  A POSITION according to Daniel 7 and Revelation 17. Paul \nsaid anti christ will position himself in the christian church and bring \nworld PEACE 4 SATAN\n\n\nIF YOU ALLOW me by the grace of the lord JESUS. I WILL SHOW YOU that the \npope and the Jesuits created the illuminati/elite masons who run our world \nwho worship the devil AND OVERALL the position of the pope is the biblical \nanti Christ the lord Jesus told us Satan would use to deceive the whole \nworld.\n\nThe anti Christ is like the kings before him ACCORDING TO Revelation 17 ; \ntherefor anti Christ has to be a position\n\nKEEP THAT IN MIND anti Christ is a position a man holds, in the end there \nwill be a final man to hold this position and everything will end with him\n\n1st of all Daniel told us the anti Christ would begin when the roman empire \nwould collapse and would last to the end of the world when Christ would \nreturn to judge\n\nonly one power only one position only one figure in human history matches \nDaniels given time line and that's the pope\n\nnobody else began his reign when the roman empire collapsed and is still \naround today but the pope\n\n\n2nd of all Paul told us the anti Christ would hide in Gods temple and \nproclaim himself to be God\n\nPaul told us the temple of God is Christianity\n\nto find the anti Christ you need to look for a blasphemous religious leader \nwho has infiltrated Christianity and claims he is God\n\nYou may not know this because its been hidden from you\n\nbut the popes of the dark ages actually claimed they were God on earth when \nthey\nspoke such blasphemy they fulfilled what  the apostle Paul warned us about\n\n3rd OF all Daniel elaborated on the exact blasphemy of the anti christ\n\nDaniel told us in Daniel 8:11-12 that the anti Christ would dare to call \nhimself the equal of the prince of host whom we know is Christ\n\nhow did the popes do this well in the dark ages  the popes claimed the \ntitle vicarus filii dei the substitute of Christ that's exactly what Daniel \nreferred to when he said the anti Christ would exalt himself as high as the \nprince of host\n\nfurthermore Daniel told us the anti Christ would think to change Gods times \nand laws the sabbath day deals with times and laws\n\nthe popes have even confessed that they where given authority to make this \nchange\n\nthey changed Gods sabbath day Saturday to Sunday a pagan day dedicated to \nsun worship  in reality its not sun worship its Satan worship\n\n4th of all REVELATION 17 warns us that the anti Christ would establish \nhimself with a HARLOT CHURCH. The prophecy says this harlot church is \nlocated on the seven mountain tops we know seven mountain tops is a \nreference in historical terms to ROME\n\nDID YOU PUT THAT ONE TOGETHER YET\n\nyou see the leaders of the Vatican the Jesuits created the Illuminati/ \nelite masons\n\nTHE PROOF for this is that they the Illuminati uses the very agenda the \nJesuits initiated\n\nIt was the Jesuits who came up with the idea of a one world government with \na one world currency\n\nthe Jesuits made this possible through the Illuminati who controls the \ncouncil of foreign relations and trilateral commission\n\nthese people are the leaders of this one world government\n\nevery war that takes place every accident that takes place in this world is \nnot an accident it was planned by the Jesuits/Illuminati/elite masons\n\nand overall Satan is the boss\n\nThe Jesuits\n\n installed powerful families like the Rothschild  family to govern our  \ninternational banks\nthrough the Illuminati the Jesuits set up puppet leaders like Obama and \nevery  US president since  Wilson\n\nThe Jesuits through the Illuminati even control our media,medical \ninstitutions,military,weapons industry, in fact they control every major \nindustry on the face of this planet\n\nJohn f Kennedy spoke against the Jesuits and the secret society which was \ntaking over the USA he wanted to remove the power of the federal reserve  \nfrom printing our money\n\nAbraham Lincoln before he died claimed the Jesuits  were taking over the USA\n\nwhy are they doing this\n\nits simple\n\nthe pope is the anti Christ which the lord Jesus warned us about\n\nthe pope is the one who will lead the kings of the world into a new \ngovernment on behalf of Satan\n\nChrist warned us\n\nin the name of Jesus may no demon hinder you from understanding this truth \nfrom the lord Jesus\n\nthis  truth is from Christ given to his people to prepare us for the \ntribulation\n\nglory be to the lord Jesus the only true king of kings every knee will bow"
p68
aS"One of the most beautiful disgusting movies I have ever seen. I keep trying \nto re watch it because of how expertly shot and preformed this movie is, \nbut it's so hard to, knowing what is coming."
p69
aS'solarmovie.so /link /play /1174587 thank me later....'
p70
aS"Oh god, The Serbian Film. The rest can go fuck themselves maybe not Shutter \nthough. The remake can fuck itself though I accidently bought that peice of \nshit. Oh Irreversible is awesome but the rest can go fuck themselves. Well \nSilent Hill wasn't the worst movie but it wasn't nearly as good as the \nothers nor as traumatic. "
p71
aS'Litterlry'
p72
aS'Can somebody tell what this movie is about? Is she possesed or something?'
p73
aS"and by a she I don't mean a woman...I mean mother earth. "
p74
aS'A man and his wife go into the forest in hopes of recovering from the \ntragic death of their infant son, only to lose their grip on sanity as they \nwitness the disturbing behavior of wildlife. Through it all, they come to \nbelieve that Satan has created the Earth, not God.'
p75
aS"Honestly bro when i saw this post i laughed, not to be rude but if you \ndon't get it. dont have a go"
p76
aS'Your quite right, mohammed warned the oumma of Islam about the Dajjal, but \nhe also added that all the prophets of the Abrahamic religions warned about \nhim...it\'s the Antichrist of the Christians and the Armilus of the jews. \nMulims dont have the monopole of the escatological knowledge, the archetype \nof the "false messiah" or "destructive spirit" has always been known to all \nthe original traditions around the world.'
p77
aS'not scary o-------o'
p78
aS'@jesusitrustin you there is no god...there are no souls...the universe was \nnot made for us and the universe itself does not have a purpose. take your \nsilly stories somewhere else...you crazy dilutional fuck'
p79
aS'Watching someone cut there clitoris of with scissors is something that will \nstay with me for my whole life this movie is so fucked up but so awesome at \nthe same time'
p80
aS"Nature is JEHOVAH's CHURCH not Obama's... I mean Zeus......... I MEAN SATAN!"
p81
aS'daddy dafoe, yay!!! '
p82
aS'Its a Lars von trier movie, in order to understand it, you must be mentally \nill.'
p83
aS'After seeing this movie, I felt this strange need to go to my favorite tree \nin the woods next to my house and masturbate while shoving acorns sideways \nup my ass. WHAT THE FUCK DID I WATCH!?'
p84
aS"Well if you haven't got it in you to watch these controversial movies you \nshouldn't really be commenting on videos like these."
p85
aS'Youtube comments have the best reviews for films.'
p86
aS'Now we know what the fox said...'
p87
aS'my plan was to watch this with a girl from school not having any idea what \nit was about. So i pressed play, the movie starts and my dad walks in to \nsee your man piledriving your one in the shower at the start of the film. I \nwas like aww ffs'
p88
aS'crap'
p89
aS'The bay is the best thing on the internet.'
p90
aS'I really like willem dafoe, and this is heavy shiet and he makes it so damn \ngreat. the woman isnt well known and I think she is ugly. that destroy \nmany parts of the movie. heavy scenes and I love the sexual ones. willem \ndafoe is the greatest actor. just watch Animal Factory and just watch him \nin it...... '
p91
aS'Will someone tell me what the song is called? Thanks muchly.'
p92
aS'I actually saw the video and till the end still do not get what this movie \nwas all about. Too much metaphorical stuff.'
p93
aS'What does the fox say? "CHAOS REIGNS"'
p94
aS'shit and fake'
p95
aS'this looks like the scariest movie'
p96
aS'i think Von Trier has awful taste in women... he was in love with Karen \nfrom the idiots... '
p97
a.