(lp0
S'Any body think that some parts of this movie is like the conjuring?'
p1
aS"2:00, That fuckin' chick !"
p2
aS'Lmfao hahahaha i hope this is on the internet already cuz i wanna watch \nthis shit XD'
p3
aS'This movie SUCKS'
p4
aS'Oh my... Fluffy is in the house!'
p5
aS'TELL THEM THE DOG IS WHITE!!! hahaha'
p6
aS'This movie looks a little racist....'
p7
aS'This was actually kinda funny. Not 5 stars, but a good effort.'
p8
aS"This looks like the writing's been done by a 12 year old."
p9
aS'why even watch the movie now\nthis trailer just shows the whole movie lol'
p10
aS"didn't laugh once"
p11
aS"Not interested. The Wayans brothers rely too much on crude sexual humor in \nevery movie, to the point that its annoying, pathetic and disgusting. If \nthey were actually talented or funny they wouldn't have to keep jumping the \ndirty shark to get a laugh."
p12
aS'wayan the most under rated comedian :/'
p13
aS"I've got o go and see this!! "
p14
aS"The Movie's Release Date Says March 28 , Does That Mean It's Already Out?"
p15
aS'When the teen look into the mirror and started to choke and then pop up a \ndick i died laughing i started to cry!'
p16
aS'The Chicken scene is gold'
p17
aS'"Oh the black guy got a gun!" Funniest part so far!'
p18
aS'the sequel is good...its better than the 1st. have some Scary Movie feeling \nin it.\nhoping for no.3.'
p19
aS'song please? '
p20
aS'Funny'
p21
aS'What is the name of song at 1:21 ??'
p22
aS'Gabriel Iglesias, that guy makes me laugh.'
p23
aS'People like this shit?'
p24
aS'i just watched this movie and i am like ... WHAT THE FUK DID I JUST SEE ?!!'
p25
aS'*screams like a bitch*, call 911 tell them the dog is white, tell them the \ndog is white! HAHAHAHA!'
p26
aS'noooooooooooo just noooooooooooo'
p27
aS'Is this on Netflix '
p28
aS'white chicks 2 needs to be made'
p29
aS'omg flufffffffyyyyy ! i love him'
p30
aS'this movie was great!'
p31
aS'"They got Kanye! They gon get yo ass"\nI laughed so hard!'
p32
aS'tell em the dog is white'
p33
aS"My favorite part when becky and malcom are together and the dic*/coc* comes \nup her throat lol sry for bad english correct me if i'm wrong somewhere"
p34
aS'I cant believe anyone, especially black people consider this funny, some \nstraight coonish shit. '
p35
aS'Looks stupid '
p36
aS'Of course the had to change the girl friend'
p37
aS'U cant be jumping out on brothers like that priceless'
p38
aS'Call 911 ! Tell them, dog is white !'
p39
aS'Funny as h***'
p40
aS'incendiaaaaar filmul'
p41
aS'dat boy...... say that in his school getting jumped for sure.'
p42
aS'aww Yeah!! Fluffy!!!!'
p43
aS'Tell them the dog is white ;D LOL'
p44
aS'Lol their making fun of the conjuring '
p45
aS'OMG FATHER DOUG!!!!!!!!!!!!!!!!!!!'
p46
aS'need to see it omfg THE GOT KIM :O'
p47
aS'Is that grabriel Iglesias? OMG!'
p48
aS"OK I'm just saying but at 0:39 was that an easter egg (hint to a movie or \ngame) there of the new movie Annabelle I'm just wondering but did anyone \nnotice that or is it just me?"
p49
aS'A Haunted House 2 Official Trailer #2 (2014) - Ma: \nhttp://youtu.be/eDyh9YloMVk'
p50
aS'What is the song pls '
p51
aS'I laughed so hard when I watched that movie'
p52
aS'MY BIRTHDAY'
p53
aS'The wayen brothers are so funny the first one was good but the second was \neven more funny most of there movies are funny anyway'
p54
aS"This movie is freaking hilarious I died laughing watching lt I can say \nit's. Way funnier then the 1st one nd it's way creepier but If you like the \n1st one definitely watch it."
p55
aS'This is s funny =)))'
p56
aS'Best comedy ever, seriously!'
p57
aS'that chicken fight though xDDD'
p58
aS'cheap movies'
p59
aS'The first one was way better.'
p60
aS'Copy of the conjuring...'
p61
aS'Is that grabriel Iglesias? OMG!'
p62
aS"Don't be racist"
p63
aS'Parody on MAMA or what? xD'
p64
aS'the last line is the best'
p65
aS'it is the same like the conjuring but this one is more funny  :/'
p66
aS"Man this movie sucks I can't believe they wasted money to make this."
p67
aS'This movie gets funny after the first thirty minutes'
p68
aS'a black guy will make the movie much much muchh funnier hahahah this movie \nis greeaatt :D'
p69
aS'kakvo je ovaj film ludilo?? mmm zeezanjeee'
p70
aS'I got real excited when I saw Gabriel Iglesias\n'
p71
aS'I really need to watch this it looks hilarious, I laughed at 1:57 Haha! XD'
p72
aS'music??'
p73
aS'Ive never watched it yet but is it funnier than the first one'
p74
aS'this hunted house 2 is like MAMA'
p75
aS'THIS MOVIE SUCK TOO MUCH AND I WAS THINK IT WAS A MOVIE BUT ISNT,,!!!'
p76
aS'This is so funny lol :D'
p77
aS'Jajajajajajajajajajajajajajaj'
p78
aS'This looks looks funny'
p79
aS'i want number 3 !!!!'
p80
aS'season 1 is much better and more fun than this one !! am i right '
p81
aS"@1:29 what's the name of that movie"
p82
aS'This is basically the conjuring\n'
p83
aS'a lot of these jokes are reused..... from A MILLION OTHER MOVIES. it was \nfunny the first time.'
p84
aS'this is so FUNNY'
p85
aS'COPIED CONJURING!! FAKE!'
p86
aS'I died when he punched the woman XD'
p87
aS'the chicken fight reminded me of family gay'
p88
aS'Why does black americans talk different from white americans?'
p89
aS'bdzie WIXA :P'
p90
aS'         '
p91
a.