(lp0
S"wow i'm searching online now lol"
p1
aS'it actually looks like a good movie'
p2
aS'cool :] and yes i am. you look so nice to hang out with !'
p3
aS'@theopenminded1 The internett'
p4
aS'you got skype or smething... '
p5
aS'Love the first line, "Man is free....".'
p6
aS"I hope you think of me the same way in person. Just so you know, the videos \nI uploaded are of a girl I found on youtube with a jewel in her navel \nbecause I found those videos very tantalizing and uploaded them. I'm a \nheterosexual male who is looking for a woman that would be fun to hang out \nwith and possibly more. "
p7
aS'yeah sure. im bi btw :] '
p8
aS'Daddy must be proud. '
p9
aS"i'm going to flag this"
p10
aS'Sounds like a horror film up to 1:09.'
p11
aS"Jeesie's website has all the links where you can by it?"
p12
aS'0:52 > 1:01 that reminded me of Du Hast.'
p13
aS'She really pretty fir a porn star'
p14
aS"Nice, I'm fine with bi girls. Are you fine yourself?"
p15
aS'@DASLAYBELZ porn usually makes their own music'
p16
aS'trailer for "wasteland" is up! its the new movie by graham travis who \nbrought you portrait of a call girl. enjoy! just take a look on elegant \nangels blog. fucking youtube don\'t allow the direct link.'
p17
aS'@linyuwen Aww man, just sounded kind of familiar. Oh well.'
p18
aS'To AQA5G4RD1AN, this video is Age-Restricted. People can actually \nmasterubate to anything if they want.'
p19
aS'haha yeah, if u want me let me know ... thnaks'
p20
aS'Masturbating*'
p21
aS'i need to see the rest '
p22
aS"Wait, isn't it called masterbating?"
p23
aS'You can post age verified stuff on here without it being deleted all over \nthe place now? Cool if so.'
p24
aS'where do i se this whole movie?! '
p25
a.