(lp0
S'I am a smiling dog - HILARIUS AND FUNNY'
p1
aS'How does this have 18 million views when Rihanna is the only girl in the \nworld?'
p2
aS'Ci cht ri ng ngon nh !'
p3
aS'HAHAHAHAHAHAHAHAHAHA DO FUNNY!!!!!!!!!!'
p4
aS'il micetto a 1:38  pucciosissimo!!!!!!!!!!!!!!!!!!!!!!!'
p5
aS"Hello, I didn't know what to watch. Is this where the internet's most bored \npeople come? lol"
p6
aS'Some of these were just sick..'
p7
aS'If you love animals, eat a vegan diet'
p8
aS'Lmao\n'
p9
aS'The entire internet in a nutshell '
p10
aS"Cats are the best, they clean themselves, burry their poo, don't lick you \nand they just purr. Dogs are cool but most of them constantly bark and lick \nyou after licking things that shouldn't even be touched!"
p11
aS" /\\     /\\\n{  `-'  }\n{  O   O  }\n~~>  V  <~~\n \\  \\|/  /\n  `---'_*_*\n  /     \\    \\_\n {       }\\  )*\\*   _\n |  \\*/  |/ /  \\*\\_/ )\n  \\__/  /(*/     \\_*/\n    (__/"
p12
aS"Don't do this to them !!!!!!!!!"
p13
aS'At 2:05 and 3:18...now those are very pissed off cats!'
p14
aS'l \n    \nl ~ .  \nl_, )\nThis is Mr.Mittens.\nShare his cuteness all around youtube and Mr. Mittens will hug your leg'
p15
aS"+lennon64 that's how I thought "
p16
aS'All cats must die, NOW.'
p17
aS'These cats make me sick to make stomach'
p18
aS'02:09 That cat wanted to be alone, ears down means its really angry and its \nalso the same with the tail, if the tail flops up and down, its angry. Even \nif it purrs and its tail flops up and down, its angry'
p19
aS"Last day of summer vacation before my senior year and i'm watching a video \nof cats. I need to get laid."
p20
aS''
p21
aS'7:38 what are you doing? 0.o a cat cleans Hus fr hisself.... \nBut there are so many Cute cats **'
p22
aS'8:20 yo you son of a fucking american bitch, cats are not to be bathed by \nhumans.'
p23
aS'Top video'
p24
aS"Feeling a little sad watching this, we had to have our cat put down today. \n It took a little longer than usual, there were some leaks in the cardboard \nbox, plus the hose wasn't taped in properly.  To make matters worse the car \nran out of gas halfway through, and we had to fill it up with pre-mixed gas \nfor the lawnmower.  It smoked like crazy. The fucking cat didn't like it \nmuch and the kids were crying, but you know how it is. Oh well, have a good \nevening everyone."
p25
aS'Laugh of the day! #laughoftheday  '
p26
aS'Amazing how similar a cat sounds to a baby.'
p27
aS"I don't see how it's funny to make cats angry or scared."
p28
aS'0:54 Dat Massaging Cat Doe xD '
p29
aS'A cat will eat your eyes balls when you die! A dog will protect your dead \nbody to the death! Who is the better friend?\nI love cats but they are defo dirty creatures. No they do not need to be \nbathed as they self clean. with the same tongue they use to lick their arse \nlol!'
p30
aS'okay I will tell u im araina grande this pic it not me its so people will \nnot know LOL!!!!'
p31
aS'Cats have 9 lives\n3x3=9\nThe square root of 9 is 3\n9/3=3\nHALF LIFE 3 CONFIRMED'
p32
aS' \nl \n    \nl ~ .  \nl_, )\nThis is Mr.Mittens.\nShare his cuteness all around youtube and Mr. Mittens will hug your leg'
p33
aS'0:45 cock beats up pussy.'
p34
aS'hello'
p35
aS' '
p36
aS"I can tell by the aggressiveness of some of the cats that the owners \nclearly don't know how to handle them, a cat it not a toy."
p37
aS'When will people learn that scared and angry cats are not "Funny"...'
p38
aS'So cute!'
p39
aS"Another Cat Dancing Video!  ViC Gilmore - I'm Gonna Dance (Like A Cat)\nhttp://youtu.be/SRRIXNBwhU4"
p40
aS'the cat inthe bath i feel sorry'
p41
aS'what kind of cat was that on the last video? i so want one.'
p42
aS'Hahaha!!!'
p43
aS'Even tough some of them were funny,I did not appreciate this video because \nlove cats and the people were teasing and scaring the poor cats.\n                                                    :-('
p44
aS'The irony of there being a cat in a cat box...'
p45
aS'If you enjoy funny cat videos you might enjoy the cats at The Cat Mag - \nTake a minute to check out this video - http://youtu.be/BooEz1YxttA - \nCheers'
p46
aS"Some of these clips are funny, but cats attacking things because they're \nscared or meowing loudly because they feel helpless isn't funny."
p47
aS'B****'
p48
aS'the cats dont love to wash'
p49
aS'\n'
p50
aS'(6:36) They call it funny, I call it #HILARIOUS'
p51
aS'Very lazy cat'
p52
aS"For people who are interested in other cat videos, check out my channel to \nsee more upcoming videos of my cats. I have one video uploaded already, I'm \nworking my way to more. So if your interested, visit my channel and watch \nmy cats videos in the link below. Thanks. Jealous kitty"
p53
aS'Fail'
p54
aS'Most of this is just people pissing their cats off, and then listening to \nthem hiss...bored me'
p55
aS'is that bird the cat was hissing at real???'
p56
aS'that is so sweeeeeeeeeet'
p57
aS'KA~~~ WA~ ~~I~~~ I~~~ !!!'
p58
aS'I love this video'
p59
aS'Some of those pet owners are so mean to their animals!'
p60
aS'Watch my ninja cat fighting a statue. Hilarious!\nhttp://youtu.be/N6f2tNUBCAE'
p61
aS'sub4sub'
p62
aS'Breakable - by Brock Bushong'
p63
aS'Half of this is just tormenting the poor things'
p64
aS'Watching my video funny cat beautiful ;) \n\nhttp://youtu.be/DVTgOLe22e4'
p65
aS'7:18 - Kitty says Lol!'
p66
aS'I like only cats but babies I like too'
p67
aS' '
p68
aS'Pumpkin\n'
p69
aS'So cute!!'
p70
aS'Muy bonito adoro a los gatos yo tengo 8 gatos Xd'
p71
aS'warum mssen katzen gebadet werden?'
p72
aS'Please check out my channel! :) - \nhttps://www.youtube.com/channel/UCrHozEceDTqLhVBoVvsYB0w'
p73
aS'Contest : Send us an original photo of you and your cat and earn a Victoria \nmodel worth 690 \nTo participate, send us between October 31 and November 16 at \nphoto@felinea.eu a photo with your name, your address, and the name of your \ncat.\n1st prize: an oak Victoria model worth  690\n2nd prize: 50% discount on the model of your choice\n3rd prize: 25% discount on the model of your choice\nResults will be posted on November 21. Be creative and have fun, the most \noriginal pictures will be rewarded!'
p74
aS'K'
p75
aS'XD cats voice soooooooooooooooooooooooooooo cute'
p76
aS'JAJAJJAAJAJAAHJAJAJA'
p77
aS'Just one of the others fun cats compilations. Good, I say. Here is one more \nmy faforit cats compilation - Chicago Cats Mafia: \nhttp://youtu.be/2BjpX2Gwg3I '
p78
aS'Brilliant,..thankyou for uploading xxx'
p79
aS'Most of them are just scared cats with idiot owners ;)'
p80
aS'awsome'
p81
aS'Arrr'
p82
aS'HERE ARE THE AWESOME BIG CATS MUST WATCH!!!!!!!\nAWESOME BIG CATS'
p83
aS'cat'
p84
aS'MIA the Cat - 1st Himalayas Mountain Climbing Training'
p85
aS'H'
p86
aS"Absolutely Cat's Meow!!! I have cats. One of these days, I'll have to post \nsome of the stuff they do. I have some information that I'd like to share. \nThere is a program where professionals will negotiate your hospital and \nrelated medical bills down if you cannot afford to pay them. People who \nhave used these services have seen an average reduction of more than 80% in \ntheir medical bills and some bills are even brought down to ZERO! Go to the \nYouTube Video A Little Known Way to Drastically Lower Hospital Bills or \ncall (800) 417-4372 for more information. They do what they say!"
p87
aS'Wah kucing pintar banget'
p88
aS"my cat was sick so i force fed her human drugs and now she's playing dead. \nwhat do i do ?"
p89
aS'car rules'
p90
aS'"We are all human!" does not justify White GENOCIDE\n"We all bleed red!" does not justify White GENOCIDE\n"Because of history " does not justify White GENOCIDE\n"For the economy" does not justify White GENOCIDE\n"A shortage of doctors" does not justify White GENOCIDE\n"Race is a social construct!" does not justify White GENOCIDE\n"We are all from Africa!" does not justify White GENOCIDE\nAnti-racist is a codeword for anti-White.'
p91
a.