(lp0
S"It's sad what they did to this franchise because the first two movies were \nactually good!"
p1
aS'Its terrible terrible just terrible!! First of all its not a B MOVIE its a \nD MOVIE! Acting is so so bad! The location is pointless and predictable and \nthe cgi, well its not cgi but some free software editing app thats been \nused on this! Storyline is obviously predictable and boring, nothing new \nhas been added to this movie to make it stand out from the previous 5! Only \ngood thing is i downloaded it for free. 2/10 if you have a spare 90mins \nthen watch paint dry instead'
p2
aS'Wtf happened to this movie, the first 3 parts were good'
p3
aS'Wrong Turn 1 was fresh; Wrong Turn 2 was amazing, better than the first \none; Wrong Turn 3 was meh; Wrong Turn 4 was a piece of crap full of \nunlikable characters; Wrong Turn 5 was boring and lazy. Hopefully this one \nwill be good!'
p4
aS'What website can i watch it ?'
p5
aS'I thought 5 was the last one, now theres a 6? Who gives an OK to the shitty \nmovies. Wrong Turn and Wrong Turn 2 were the only good wrong turn movies. \nThe rest are fucking shit.'
p6
aS'In my opinion after the first one things just got bad, everything looks \nfake'
p7
aS'A womans place is in the kitchen LOL'
p8
aS'whats the name of the girl riding the bike '
p9
aS"Can someone tell me wtf just happened? the only wrong turn movie that was \ngood was the first one, they should've never made other ones. "
p10
aS"the first and second wrong turn films are good.\n3,4,5 are shitty but they were directed by the same directed. declan \no'brian \nwrong turn 6 is directed by someone different so there is still hope on it \nbeing good. IMO they should reboot it and try to make it amazing "
p11
aS'Please I am warning everyone, DO NOT spend your valuable time watching this \npiece of garbage called movie. I still do not understand why people keep \nsaying "it was pretty good" or "I actually liked it". Some people liked it \n\'cause of the sex scenes not for what it should\'ve been. Uugghh it was huge \ndisappointment and very insulting to the first Wrong Turn movie.'
p12
aS'shut up bitch!!'
p13
aS'This was literally the worst wrong turn movie ever made!!! I usually like \nwrong turn movies but this one just sucked! I thought this was supposed to \nbe a horror movie. Not a porn movie. All I saw was sex in this movie. There \nwas more sex than killing in this one. Very very bad. '
p14
aS"women's place is in the KITchEN.. go back to kitchen you BITChes"
p15
aS'watched this the other day. It\'s better than most of the Wrong Turn \nsequels.. I don\'t think there was any "wrong turn" in this film though. The \nstory was actually better than most of the wrong turns i thought. It did \nseem more like a trashy horror with a few wrong turn bits tacked on though.'
p16
aS"Here is the order that I like the Wrong Turn Film's. \n\n1) Wrong Turn\n2) Wrong Turn 2\n3) Wrong Turn 4\n4) Wrong Turn 3\n5) Wrong Turn 5\n6) Wrong Turn 6"
p17
aS'I dont see any wrong turn in this film,they all seems on the right track \nlol'
p18
aS'She has one boob bigger than the other'
p19
aS"This looks terrible but than again every wrong turn movie I've ever seen \nsucked so this format come as a surprise "
p20
aS'Song of the trailer?'
p21
aS'They sure seem to have an ample supply of barbed wire. '
p22
aS'Sure Yall women can go to work do ur shiet no1 stopping yall, but dont \nforget about the kitchen and good sex in bed geez. That all men (well not \nall but neway) We love women whom can cook. And Life is a dick when it get \nhard FK it :)'
p23
aS'This move is terrible all I could tell u it as to many sex in this movie '
p24
aS"Just watched this. It was enjoyable, but it's definitely the worst out of \nthem all, in my opinion. There was more sex than anything else.\n\nMy order of preference:\n\n1) Wrong Turn 5\n2) Wrong Turn 2\n3) Wrong Turn 3\n4) Wrong Turn\n5) Wrong Turn 4\n6) Wrong Turn 6 "
p25
aS"Movie time with family but I really don't feel like watching it. Its really \ngross!!!"
p26
aS'Stop comparing the first two parts and get over it . this part is actually \ngood'
p27
aS'The movie looks like complete trash'
p28
aS"i wish i understood wtf she's saying..."
p29
aS'RIP wrong turn..'
p30
aS'I prefer the first wrong turn. the others are irrelevant'
p31
aS'And one more thing I hate when they change all the actors xD I still dont \nknow what happen to that girl with no eyes at the end of wrong turn 5...'
p32
aS'All parts are amazing, especially 5 :D i hope that wrong turn 6 will be \nawesomeee!'
p33
aS'I actually thought it was a joke trailer'
p34
aS'Its ok ...what i really want is less sex more action '
p35
aS'death scenes were good but the plot sucks'
p36
aS"In your case I'd say you're place is in my bed"
p37
aS'Shit waste of time'
p38
aS'Can someone translate what that hideous looking woman just said please. '
p39
aS'oh myy this movie is fucking crazy !!!! and fucking ending as well \n!!!!!!!!!'
p40
aS"why does that bitch have to be at the end? she's ugly and annoying"
p41
aS'I enjoyed every second of this movie :P  Damn i liked all wrong turn movies \n. Never gets boring'
p42
aS'FINALLY'
p43
aS"what happened to the news about the Aliens franchise? They'll do whatever \nto keep viewers....fuckers!!!"
p44
aS'6 is just waste of time (awful)'
p45
aS'hujnja ble'
p46
aS'Bad Bad Bad!\nWFT happend to this movie? This part 6 is a piece of sh*t ! Bleah'
p47
aS"Wrong Turn (the first one) \nWas the best in my opinion\nNo sex no over the top gore\nThe rest were crap wtf happened?\nThey could have made this franchise great but they always get retarded \nactors who probably don't wipe there ass lol"
p48
aS'yeah, russian chick made it to america and lived the american dream \n....not!'
p49
aS"I don't know how people liked the 5th installment of this series. I mean i \nam a huge fan off horror and have seen all of the Wrong Turn movies but the \n5th one was just bad to me. I feel like the movie was made to make me hate \nit's plot and make me hate everything that occurred in the movie. None of \nthe actual story was likable or unique and instead of the death scenes \nmaking me cringe they made me feel bad or sorry for the movie."
p50
aS"This one FUCKING SUCKED.... JUST STOP.. I really hope this is the last of \nthe series... The first Wrong Turn was REALLY good, but they have gotten \nprogressively worse and I believe this is rock bottom. It's just a big fuck \nfest and a TERRIBLE excuse for a horror movie. I rarely write reviews about \nmovies but this was just awful!"
p51
aS'Well I can say this !! this one better then wrong Turn 5 & wrong turn \n3.....but Not as Great as wrong turn 1 & 2...this one and the 4th  one are \non the same Level'
p52
aS'wat the hell'
p53
aS'They should have just stopped at one....maybe two. The rest they need to be \nshot '
p54
aS'worst saga of this movie.... this is so bad'
p55
aS'Dislike for the ugly girl or for the movie ? Cause i am confused.Haha :))'
p56
aS'I thought part 4 was the best!!!! '
p57
aS'these wrong turn movies are so stupid now'
p58
aS"Fucking horrible. DO NOT BUY THIS MOVIE. IT'S NOT EVEN WORTH WATCHING FOR \nFREE."
p59
aS'i want to see all murderers been killed.'
p60
aS'go make me a burger'
p61
aS'This film looks like it was made by my 10 year old nephew on his ipad.'
p62
aS'I just seen this movie!! Its actually pretty good i liked it'
p63
aS'i cant understand half of things this lady said...they should put \nsubtitles...her english...well enough said...'
p64
aS"the reason why these movies are soo likeable is due to the fact that \nthey're are bad!!!!!!!!!!!!!!!!!!!!!!!\nimma give it a shot"
p65
aS'The most horrific thing is your accent...'
p66
aS"damn right it's not on the kitchen, most of you can't cook shit men are \nbetter cooks anyway"
p67
aS'+Horror Movie Trailers FUCK YOU,.....unsubed\nand i bet im not the only one,,,,,,,we want to see the movie,,,not a ugly \ngirl making stupid not funny jokes,,unsubbed'
p68
aS'This guys wont die are they'
p69
aS'woman in yellow jsut fuck off will ya?'
p70
aS"After subjecting myself to the previous 5 earlier in the year for the \npodcast  I'm about to watch this... pray for me. "
p71
aS"fuck are you...all team....don't know make a better movie..than why west \nyour an we time an money ....."
p72
aS"Wrong turn was the only one that went in theaters. First two were good, now \nthey're just splattering blood everywhere. Haven't seen 3-6, and not \nplanning to"
p73
aS'Worst of the series....first 5 series r best...6 is jst waste of time..'
p74
aS'Wrong Turn 6  Nice '
p75
aS'fucking movie -_-'
p76
aS'Make more movies, good or bad I still like it.'
p77
aS"First two parts are really good but then comes Declan O'Brien and \neverything went wrong... This movie maybe isn`t so good but it is still \nbetter then O`Brien`s movies ;)"
p78
aS'Watch porn instead of this stupid movie. '
p79
aS'Wrong Turn 6 Last Resort  BRAZZERS     8.5% horror.'
p80
aS'what the fuck hahahah'
p81
aS'Where is Wrong Turn 1 and 2 ??  Wrong Turn 6 ? OMG REALLY  ? You kidding \n???  the Color of this film is GONE guys.. do Better or let it goo!'
p82
aS'Ive watched wrong turn 6 ,actually is pretty good .'
p83
aS'wtf is this shit ?'
p84
aS'Wrong turn 6.. no more please!'
p85
aS'pusi ga majmune'
p86
aS'ITALIAN ACCENT!haha'
p87
aS'Schirche sau'
p88
aS'ENOUGHHHHHHH! STOP DOING THIS MOVIE. PLEASE. Is getting worse every single \nmovie.'
p89
aS'Do americans inbreed?'
p90
aS"i guess i'd root her"
p91
aS'Porn Turn 6'
p92
aS'ALL OF THEM ARE GREAT THANKS!!'
p93
aS'Was that the end of the trailer or did this bloody woman interrupt it to \nnag me about rubbish?'
p94
aS' watching halloween :)!'
p95
aS'lol fuck this shit'
p96
a.