(lp0
S'@Flprazeres PRECONCEITOO ?? ROCKEROO E VIADOO SIM RAPAIZ ...NAO PRESTAA .. \nDOIDAOO ..TUDO USA PEDRAA E ESTUPRA ... CAMBOIOO DE CUZAOO '
p1
aS'AHAH ADOREII * -*'
p2
aS'PIRIGUETES!!!!???'
p3
aS'@pacrvts vai ouvi a porra do seu luan santan e a porra do seu restart e \npensa duas vezes pra fala de rock. nao  so pq eu escuto rock que eu \nestupro e uso pedra, assim como nao  so pq vc gosta de luan santana e \nrestart vc  homo-sexual, talvez... '
p4
aS'@adrianeprado1 pqp esse filme e muito punk'
p5
aS'1:28 Maria Clara me lasca de rir! KKKKKKKKKKKKKKKKK'
p6
aS'Show , Show , Show ! kkkkk '
p7
aS'kkkkk muito massa amei kkkkkkkk'
p8
aS'O Marcelo Adnet  dazora vi'
p9
aS'adnet salvo o fime!!'
p10
aS'filme brasileiro  mt ruuimm kkkk'
p11
aS'O trailer  melhor do que o filme...'
p12
aS'EU FUI NO DIA QUE LANOU O FILME!!!RI DEMAIS KKKKKKKKKKK...'
p13
aS'acho que respondi pra pessoa errada. lembro que uma pessoa disse que foi o \nmelhor filme que ja assistiu em toda sua vida ou algo assim. desculpa.'
p14
aS'kkkk'
p15
aS'muitissimo legal amei esse filme '
p16
aS'Eu amei esse filme. muito engraado!'
p17
aS'DKOSPAKDOPSKADKPOASKDKSAOPKPDKAKDKASOKDOKASKDOKASOPKPDOKASOPDKPOSKAOPDKSAOPKDASOKDOPKASODKAS \ns de lembrar eu me cago muito engraado todo mundo deveria assistir :D  \ntimo para rir'
p18
aS'O trailer  melhor que o filme.'
p19
aS'Ri muito no shoping Dom Pedro, 10! Bjs, jah eh, ti adi....Cps47. \nbjssssssssssssssss!'
p20
aS'show show show show show show!'
p21
aS'Porque filme americano nao  so palavrao, historinha de amor pronta e festa \nde universidade nao ne?'
p22
aS'Esse filme  otimo!'
p23
aS'Esse filme deve ser uma bosta.'
p24
aS'Esse filme deve ser uma bosta.'
p25
aS'Nossa... o filme  bom sim! Galera falando mal a..p.. eu gostei bastante. \nO lance da maconha... as participaes especiais... o cara do ax... Ficou \nmassa sim! Se a galera tava esperando um filme do nvel hollywoodiano, a \ntb  foda n. Galera falando de produo, trilha musical.. p, o \ninvestimento  bem menor. Mas o filme  bacana sim.'
p26
aS'imitando o boa quem conhee hermes e renato sabe q eeu to falando'
p27
aS'O trailer  to legal... mas o filme  psimo!!! Nossa, a idia t boa, \nmas muito mal executado, mal gravado e editado. Atores muito, muito fracos \ne ainda as estrelas tipo o Adnet to irreconhecveis... decepo total! \nAchei q o cinema brasileiro tava evoluindo, mas essa evoluo vale pra \npoucos produtores.'
p28
aS'Q merda'
p29
aS'2:0 best part shauihsiu haisuhsiauhuishisahsaiuhsa'
p30
aS"O povo que gosta de falar mal que me perdoe mais o filme parece ser \nmuuuuuuuuito bom, tem gente que num pode saber que o filme  brasileiro que \nacha que ja no presta, mas pra assistir porcaria coreana e americana acha \nbom e da valor... ' gentinha ein"
p31
aS'Primeiro filme brasileiro que eu vejo que tem maconha no roteiro'
p32
aS'Meus equipamento meu cheiu de vomito!!!'
p33
aS'muito bom esse filme MEUUUUUUUUUUUUUUUUUUU kkkkkkkk '
p34
aS'HAHAHAHA QUI LADAIA ESSE FILME SKAKSKA MEEEEUUU MEU EQUIPPAMENTO MEUUUUU \nTUDO CHEIO DE VOMITO MEUUU !!KSAKSKA @LEANDERSON_9 '
p35
aS'Maior decepao esse filme! Os atores mais engraados tem poucas cenas, dava \npra ser mais engraado se tivessem aproveitado mais os atores, d pra \ncontar as cenas realmente engraadas, enfim bom pra quem ri fcil quem \nespera dar gargalhadas  melhor assistir outro filme! '
p36
aS'vc ta criticando o filme ou oque?'
p37
aS'desanimei pra ver o filme, todo mundo ta comentando mas falando mau pra \ncaralho desencanei'
p38
aS'o tucoo  comedia kkkkkkkkkkkkkkkkk'
p39
aS' Meeeu equipamento meeeeu. Cheio de vomito kkkkk'
p40
aS'haha  muito massa no comeo  panico a velha dizendo e vc acha quanto \ntempo leva pra rega todo esse matagal em kkkkkkkkk  muito panico oa \ncontario de quem acha pessimo gosto  que nem c cada um tem o seu mais so \ndevemos dizer que algo  ruim quando alguem concorda nao que a metade do \nmundo ocidental ri e vc acha pessimo kkkk vai se fuder quem nao gosto se \nassistiu o trailler  pq tava afim vai da o c que ninguem ta afim de ouvir \ntuas merdas gente sem humor kk filme 10 :)'
p41
aS'Porr# Marcelo Adnet t imitando o boa no filme...'
p42
aS'Acho que pelo trailer j d pra julgar. No vou gastar duas horas da minha \nvida vendo isso, obrigado.'
p43
aS'meeeeeeeeeuuuu, meeeeeeeeeuuus equipamentoooss meeeeeus cheio de vumito \nmeeeeeeeeeeeeeeeeeeeeeu...adorrrrrrooooooooooooooo'
p44
aS'viva o rock !!'
p45
aS'(Gianne Albertoni ela e da italia linda '
p46
aS'Adoreeeiii *-* Muito bom Recomendadssimo!'
p47
aS'kkk,comprei o filme,tava ancioso para assistir,Mas j to desanimado....S \npelos comentrios..kk Ainda Bem que foi s 2reais l na feira... Bom,acho a \npirataria um absurdo,pois eles gastam bastante... mas,quem no compra um \ndvd pirata? quem n tem teto de vidro que atire a primeira pedra.... Vou \nassistir Xau..'
p48
aS'@AndreiPRE hAUhUHAuhAHHAUhuHAuhUHAhAh epic laugh!'
p49
aS'haha  muito massa no comeo  panico a velha dizendo e vc acha quanto \ntempo leva pra rega todo esse matagal em kkkkkkkkk  muito panico oa \ncontario de quem acha pessimo gosto  que nem c cada um tem o seu mais so \ndevemos dizer que algo  ruim quando alguem concorda nao que a metade do \nmundo ocidental ri e vc acha pessimo kkkk vai se fuder quem nao gosto se \nassistiu o trailler  pq tava afim vai da o c que ninguem ta afim de ouvir \ntuas merdas gente sem humor kk filme 10 :)'
p50
aS'Porr# Marcelo Adnet t imitando o boa no filme...'
p51
aS'Acho que pelo trailer j d pra julgar. No vou gastar duas horas da minha \nvida vendo isso, obrigado.'
p52
aS'MEEEEEEEEEEEEEEEEEEEEEEEEUUU No,meus equipameintus,mu...tudu cheio de \nvmitu,meeeeeu... HAHAHHA'
p53
aS'meeeeeeeeeuuuu, meeeeeeeeeuuus equipamentoooss meeeeeus cheio de vumito \nmeeeeeeeeeeeeeeeeeeeeeu...adorrrrrrooooooooooooooo'
p54
aS'viva o rock !!'
p55
aS'(Gianne Albertoni ela e da italia linda '
p56
aS'kkkkkkkkkkkkkkkkkkkkkkkkkkkkkkkkkkkk'
p57
aS'Adoreeeiii *-* Muito bom Recomendadssimo!'
p58
aS'kkk,comprei o filme,tava ancioso para assistir,Mas j to desanimado....S \npelos comentrios..kk Ainda Bem que foi s 2reais l na feira... Bom,acho a \npirataria um absurdo,pois eles gastam bastante... mas,quem no compra um \ndvd pirata? quem n tem teto de vidro que atire a primeira pedra.... Vou \nassistir Xau..'
p59
aS'FILME PODRE, DOS PODRES !!! '
p60
aS'concordo com o rodolfosilveira88... sem sal... poucas partes realmente \nengraadas =( Esperava mais. Nota 6'
p61
aS'Comdia. '
p62
aS'VAI TOMAR NO CU DE QUEM TA CRITICANDO, N TEM DINHEIRO NEM P FAZER VIDEO DE \nANIVERSARIO E TAH TIRANDO AS PARADA DO BRASIL, MORO EM LONDRES CARA E JA \nMOREI NO EUA O PAIS Q VCS TUDO PAGA PAU, E TANTO LA QUANTO AKI TEM TANTA \nPORCARIA BROTHER Q VC AE NO BRASIL DEVERIA AGRADECER POR PODER ASSISTIR \nISSO AE Q VCS VIVEM CRITICANDO... ABRAO AE  NIS BRASIL...'
p63
aS'vo assistir macunama, iracema, conde de monte cristo, gonzaga de pai pra \nfilho, etc... antes de criticar o cinema nacional. Tem muita diversidade, \ntem pra todos os gostos e todas as idades.'
p64
aS'Soninha . Soninhaa . HMMMMM Soninha . KKKKKKKKKK ESSA PARTE DO FILME E \nMUITO DOIDA !'
p65
aS'ele e muito bo! '
p66
aS'E CHICLETE COM BANANA!'
p67
aS'Esse foi um dos melhores filmes de comdia brasileiro que j vi,,, Muito \nbom....'
p68
aS'"meeeeeeeeeooo...meus equipamentoo meeeeeeeeeeoo...cheio de \'vumito\' \nmeooo...." sou paulista, mas me racho vendo outros imitando...'
p69
aS'mas tinha que torcar um chiclete com banana kkkkkkkkkkk '
p70
aS'ainda nao assisti o filme, mais espero que o hermes e renato tenham outra \ncena alem dessa, senao vou concordar com o Dan0360'
p71
aS'Meuuuuuuuuuuuuu meus equipamentos ..cheio de vmito... isso j aconteceu \ncomigo ...mas foi no carro .... a piriguete lavou o cho do carro ....ficou \numa semana para sair o cheiro de azedo ..............kkkkkkkkkkkkkkk'
p72
a.