(lp0
S'looks gay'
p1
aS'I watched this movie too, its super funny!!!!!!! a million gold stars :)'
p2
aS'Dissapointment.'
p3
aS"jelly: it's extra sad when a hot chick dies,when an ugly chick dies there \nlife probably sucked anyway so its no big deal. me: \nhahaahahahaahahahahahaha "
p4
aS'Jacques Dompsier '
p5
aS"Please don't kill me in the toilet."
p6
aS"please don't kill me on the toilet ........ lmaoooo"
p7
aS'you like me i do not omg'
p8
aS'Holy shit I want to see this. '
p9
aS"@sweetganjagurl LOL that cracked me up :')"
p10
aS'Man...this is awesome!'
p11
aS'What the hell! This looks awesome but I just read that it only made less \nthat $1 300 at the box office. '
p12
aS'the most underrated movie of all time i just love it ill put it in my \nnumber 1 comedy/heist movie of all time guys its a MUST WATCH!!!!!'
p13
aS'1 _ _ _ _, 5 men. '
p14
aS"- if they wanna kill us, we kill 'em first! - COOL PLAN!"
p15
aS"AHAHAHAHA oh my gosh this looked hilarious, wished I'd gone and seen it :/"
p16
aS'I watched it yesterday'
p17
aS'I loved this movie. It was Awesome.'
p18
aS'Sorry: likeness to Clue, it was a great ovie'
p19
aS'"Please don\'t kill me on the toilet"'
p20
aS'Mother.rooo lol'
p21
aS'This movie is epic, with a small dozen of mindfucks :D'
p22
aS'this movie is actually funny!!'
p23
aS'whats the name of that australian guy in the movie?'
p24
aS'This movie is awesome........ seen it... better than many I have seen!'
p25
a.