(dp0
S'604701336190394368'
p1
S'2015-05-31 10:40:16'
p2
sS'604548336981401600'
p3
S'2015-05-31 10:40:18'
p4
sS'604534741572853761'
p5
S'2015-05-31 10:40:19'
p6
sS'604621366126510080'
p7
S'2015-05-31 10:40:21'
p8
sS'604571583261253632'
p9
S'2015-05-31 10:40:22'
p10
sS'604518890001940482'
p11
S'2015-05-31 10:40:24'
p12
sS'604524041680977920'
p13
S'2015-05-31 10:40:25'
p14
sS'604561808846749698'
p15
S'2015-05-31 10:40:26'
p16
sS'604860137157763073'
p17
S'2015-05-31 10:44:16'
p18
sS'604854255560695808'
p19
S'2015-05-31 10:44:18'
p20
sS'604569536034004992'
p21
S'2015-05-31 10:40:28'
p22
sS'604684466640941056'
p23
S'2015-05-31 10:40:29'
p24
sS'604683390973931520'
p25
S'2015-05-31 10:40:31'
p26
sS'604538738086014976'
p27
S'2015-05-31 10:40:32'
p28
sS'604559777134305281'
p29
S'2015-05-31 10:40:34'
p30
sS'604563229906305024'
p31
S'2015-05-31 10:40:35'
p32
sS'604673716950138881'
p33
S'2015-05-31 10:40:36'
p34
sS'604689213938745344'
p35
S'2015-05-31 10:40:38'
p36
sS'604526296593395712'
p37
S'2015-05-31 10:40:39'
p38
sS'604566741499322368'
p39
S'2015-05-31 10:40:41'
p40
sS'604684777577250816'
p41
S'2015-05-31 10:40:42'
p42
sS'604530779364814848'
p43
S'2015-05-31 10:40:43'
p44
sS'604572825144324096'
p45
S'2015-05-31 10:40:45'
p46
sS'604567915975733248'
p47
S'2015-05-31 10:40:47'
p48
sS'604619403452235776'
p49
S'2015-05-31 10:43:16'
p50
sS'604562448910123009'
p51
S'2015-05-31 10:40:48'
p52
sS'604672729430630400'
p53
S'2015-05-31 10:40:49'
p54
sS'604627327058780160'
p55
S'2015-05-31 10:40:51'
p56
sS'604576524205842432'
p57
S'2015-05-31 10:40:52'
p58
sS'604570075903827969'
p59
S'2015-05-31 10:40:54'
p60
sS'604561133089914880'
p61
S'2015-05-31 10:40:55'
p62
sS'604573413923917824'
p63
S'2015-05-31 10:40:57'
p64
sS'604854342219231232'
p65
S'2015-05-31 10:44:19'
p66
sS'604563186604347394'
p67
S'2015-05-31 10:40:58'
p68
sS'604558893344157697'
p69
S'2015-05-31 10:40:59'
p70
sS'604564038798839808'
p71
S'2015-05-31 10:41:01'
p72
sS'604695265375682560'
p73
S'2015-05-31 10:41:02'
p74
sS'604844066493353984'
p75
S'2015-05-31 10:44:21'
p76
sS'604567493181505536'
p77
S'2015-05-31 10:41:04'
p78
sS'604562643047686144'
p79
S'2015-05-31 10:41:05'
p80
sS'604576079148281856'
p81
S'2015-05-31 10:41:07'
p82
sS'604571221376692224'
p83
S'2015-05-31 10:41:08'
p84
sS'604683000194809856'
p85
S'2015-05-31 10:41:10'
p86
sS'604560044466667520'
p87
S'2015-05-31 10:41:12'
p88
sS'604573313310982145'
p89
S'2015-05-31 10:41:13'
p90
sS'604842019702382592'
p91
S'2015-05-31 10:41:15'
p92
sS'604571144285351936'
p93
S'2015-05-31 10:41:16'
p94
sS'604534399099531264'
p95
S'2015-05-31 10:41:18'
p96
sS'604843951309365249'
p97
S'2015-05-31 10:44:22'
p98
sS'604528977512767488'
p99
S'2015-05-31 10:41:19'
p100
sS'604571817945071616'
p101
S'2015-05-31 10:41:21'
p102
sS'604555801315786752'
p103
S'2015-05-31 10:41:22'
p104
sS'604612884081942528'
p105
S'2015-05-31 10:41:23'
p106
sS'604544357169926147'
p107
S'2015-05-31 10:41:25'
p108
sS'604642436673990656'
p109
S'2015-05-31 10:41:27'
p110
sS'604631504472252416'
p111
S'2015-05-31 10:41:28'
p112
sS'604569676400594946'
p113
S'2015-05-31 10:41:30'
p114
sS'604563968431038464'
p115
S'2015-05-31 10:41:31'
p116
sS'604572228299022336'
p117
S'2015-05-31 10:41:32'
p118
sS'604520670379188226'
p119
S'2015-05-31 10:41:34'
p120
sS'604538507512528897'
p121
S'2015-05-31 10:41:35'
p122
sS'604572468062339072'
p123
S'2015-05-31 10:41:37'
p124
sS'604567002674397184'
p125
S'2015-05-31 10:43:18'
p126
sS'604847767186456576'
p127
S'2015-05-31 10:41:38'
p128
sS'604567702582128640'
p129
S'2015-05-31 10:41:39'
p130
sS'604563381467516928'
p131
S'2015-05-31 10:44:23'
p132
sS'604561018035920897'
p133
S'2015-05-31 10:44:25'
p134
sS'604856099192356867'
p135
S'2015-05-31 10:41:41'
p136
sS'604570899182854144'
p137
S'2015-05-31 10:41:43'
p138
sS'604707645472112640'
p139
S'2015-05-31 10:41:44'
p140
sS'604524313849380866'
p141
S'2015-05-31 10:41:45'
p142
sS'604520441084932096'
p143
S'2015-05-31 10:41:47'
p144
sS'604563993659777024'
p145
S'2015-05-31 10:41:48'
p146
sS'604709870223257601'
p147
S'2015-05-31 10:41:50'
p148
sS'604603316601913344'
p149
S'2015-05-31 10:41:51'
p150
sS'604547503447371777'
p151
S'2015-05-31 10:41:53'
p152
sS'604576248854020096'
p153
S'2015-05-31 10:41:54'
p154
sS'604629193830203392'
p155
S'2015-05-31 10:41:56'
p156
sS'604559654568390656'
p157
S'2015-05-31 10:41:57'
p158
sS'604666519012835328'
p159
S'2015-05-31 10:41:59'
p160
sS'604716443611963393'
p161
S'2015-05-31 10:44:27'
p162
sS'604684246590976000'
p163
S'2015-05-31 10:42:00'
p164
sS'604561397825957888'
p165
S'2015-05-31 10:42:02'
p166
sS'604842121003155456'
p167
S'2015-05-31 10:42:03'
p168
sS'604570693775196162'
p169
S'2015-05-31 10:42:05'
p170
sS'604558277062492160'
p171
S'2015-05-31 10:42:06'
p172
sS'604565148179660800'
p173
S'2015-05-31 10:42:08'
p174
sS'604608166546964480'
p175
S'2015-05-31 10:42:09'
p176
sS'604565474290987008'
p177
S'2015-05-31 10:42:11'
p178
sS'604561716949614594'
p179
S'2015-05-31 10:42:12'
p180
sS'604858898915426305'
p181
S'2015-05-31 10:42:14'
p182
sS'604685608921882624'
p183
S'2015-05-31 10:42:15'
p184
sS'604537543623737344'
p185
S'2015-05-31 10:42:17'
p186
sS'604571936492953600'
p187
S'2015-05-31 10:42:18'
p188
sS'604681135486951424'
p189
S'2015-05-31 10:42:20'
p190
sS'604685493087789056'
p191
S'2015-05-31 10:44:28'
p192
sS'604612824816455680'
p193
S'2015-05-31 10:42:21'
p194
sS'604687127427710976'
p195
S'2015-05-31 10:42:22'
p196
sS'604687931618369536'
p197
S'2015-05-31 10:42:24'
p198
sS'604543194978607104'
p199
S'2015-05-31 10:42:25'
p200
sS'604575896385691648'
p201
S'2015-05-31 10:42:27'
p202
sS'604681658743189505'
p203
S'2015-05-31 10:42:28'
p204
sS'604627774532284416'
p205
S'2015-05-31 10:42:30'
p206
sS'604573986899361792'
p207
S'2015-05-31 10:42:31'
p208
sS'604607694398320640'
p209
S'2015-05-31 10:42:33'
p210
sS'604640788820008960'
p211
S'2015-05-31 10:42:34'
p212
sS'604674202587688961'
p213
S'2015-05-31 10:42:36'
p214
sS'604671149805469698'
p215
S'2015-05-31 10:42:37'
p216
sS'604615500862087168'
p217
S'2015-05-31 10:42:39'
p218
sS'604642030774386688'
p219
S'2015-05-31 10:42:40'
p220
sS'604641957684477952'
p221
S'2015-05-31 10:42:42'
p222
sS'604571557306855426'
p223
S'2015-05-31 10:42:43'
p224
sS'604566007114440704'
p225
S'2015-05-31 10:44:29'
p226
sS'604567105120313347'
p227
S'2015-05-31 10:42:44'
p228
sS'604564265379299328'
p229
S'2015-05-31 10:42:46'
p230
sS'604876816122191872'
p231
S'2015-05-31 10:42:48'
p232
sS'604561835094732800'
p233
S'2015-05-31 10:42:49'
p234
sS'604703015849750528'
p235
S'2015-05-31 10:42:50'
p236
sS'604567152071352320'
p237
S'2015-05-31 10:42:52'
p238
sS'604567954173206528'
p239
S'2015-05-31 10:42:54'
p240
sS'604571653436141568'
p241
S'2015-05-31 10:42:55'
p242
sS'604682818602434560'
p243
S'2015-05-31 10:42:56'
p244
sS'604571757542973440'
p245
S'2015-05-31 10:42:58'
p246
s.