(lp0
F3.8
aF5.8
aF5.1
aF5.4
aF6.2
aF6.2
aF6.8
aF7.1
aF4.3
aF6.8
aF6.7
aF7.1
aF4.4
aF6.7
aF6.2
aF4.8
aF5.8
aF5.3
aF6.5
aF5.3
aF7.1
aF5.9
aF7.3
aF6.8
aF5.4
aF6.4
aF6.5
aF7.1
aF8.2
aF6.8
aF6.6
aF8.0
aF6.6
aF6.2
aF6.1
aF8.2
aF6.3
aF8.2
aF5.6
aF7.6
aF7.5
aF7.2
aF7.6
aF8.1
aF6.4
aF6.1
aF6.3
aF6.4
aF6.5
aF6.5
aF4.7
aF8.6
aF6.6
aF8.2
aF4.5
aF6.5
aF4.9
aF7.9
aF5.7
aF6.9
aF7.4
aF6.4
aF7.1
aF6.9
aF6.6
aF5.6
aF7.2
aF7.2
aF6.7
aF4.3
aF7.4
aF6.3
aF5.2
aF6.7
aF6.2
aF3.7
aF7.7
aF6.4
aF8.1
aF5.8
aF8.0
aF5.4
aF4.4
aF5.9
aF5.1
aF7.9
aF6.0
aF6.4
aF5.2
aF9.0
aF4.5
aF5.8
aF7.9
aF3.9
aF5.3
aF7.2
aF5.3
aF6.4
aF6.4
aF6.8
aF4.8
aF5.4
aF7.6
aF6.2
aF6.6
aF6.5
aF6.5
aF7.9
aF6.2
aF5.1
aF7.7
aF4.9
aF6.0
aF8.0
aF6.6
aF6.5
aF6.0
aF6.7
aF6.1
aF6.6
aF6.1
aF7.9
aF7.3
aF6.2
aF6.9
aF5.8
aF7.5
aF6.5
aF6.5
aF5.9
aF6.8
aF5.8
aF6.6
aF6.0
aF7.1
aF6.5
aF7.6
aF2.7
aF7.6
aF5.7
aF8.0
aF7.0
aF6.2
aF7.8
aF7.8
aF6.8
aF7.6
aF7.1
aF7.7
aF6.6
aF5.5
aF6.7
aF6.6
aF8.5
aF8.2
aF7.3
aF6.5
aF7.7
aF8.1
aF7.2
aF7.9
aF7.7
aF7.2
aF7.3
aF8.5
aF6.7
aF6.6
aF6.9
aF5.1
aF7.9
aF6.2
aF7.3
aF5.5
aF7.4
aF8.1
aF7.1
aF8.1
aF6.9
aF6.6
aF6.2
aF7.8
aF6.5
aF6.9
aF6.6
aF6.7
aF7.2
aF6.4
aF6.5
aF6.0
aF7.0
aF5.7
aF6.3
aF6.5
aF6.7
aF5.0
aF6.8
aF7.1
aF6.4
aF5.8
aF4.7
aF7.3
aF7.4
aF6.2
aF6.4
aF5.0
aF7.0
aF6.0
aF6.7
aF7.9
aF6.6
aF6.7
aF8.2
aF6.3
aF5.7
aF7.3
aF6.1
aF6.5
aF6.7
aF6.3
aF6.1
aF8.2
aF7.5
aF7.7
aF6.9
aF6.2
aF5.7
aF5.7
aF6.7
aF6.8
aF5.6
aF6.0
aF6.5
aF6.4
aF7.3
aF7.2
aF6.8
aF3.8
aF5.7
aF7.7
aF6.6
aF7.6
aF5.2
aF6.7
aF6.9
aF4.7
aF6.7
aF6.3
aF4.8
aF7.1
aF7.3
aF7.5
aF4.9
aF7.9
aF7.3
aF7.1
aF3.0
aF7.1
aF6.1
aF7.0
aF6.0
aF6.6
aF5.9
aF6.7
aF4.4
aF8.5
aF7.3
aF7.2
aF6.4
aF5.8
aF5.4
aF4.6
aF6.3
aF6.8
aF7.3
aF6.1
aF7.8
aF7.4
aF6.8
aF6.8
aF6.5
aF4.2
aF8.0
aF5.1
aF7.8
aF4.6
aF7.1
aF4.9
aF6.6
aF5.8
aF6.7
aF5.9
aF7.1
aF6.8
aF7.1
aF5.1
aF7.9
aF6.9
aF6.6
aF7.0
aF6.1
aF8.2
aF4.5
aF5.4
aF5.6
aF4.9
aF6.5
aF7.1
aF6.4
aF6.8
aF6.3
aF6.0
aF6.4
aF7.1
aF6.1
aF8.6
aF5.0
aF6.1
aF3.4
aF6.4
aF6.1
aF7.7
aF5.2
aF6.8
aF6.2
aF5.9
aF6.4
aF4.7
aF7.1
aF6.7
aF6.4
aF6.2
aF6.5
aF5.1
aF7.0
aF7.0
aF5.1
aF7.6
aF8.2
aF5.6
aF8.1
aF5.2
aF6.6
aF4.0
aF7.6
aF5.9
aF6.2
aF6.4
aF5.4
aF4.7
aF6.7
aF7.6
aF7.6
aF6.7
aF7.2
aF7.4
aF5.9
aF7.4
aF8.0
aF6.1
aF6.5
aF6.1
aF5.8
aF6.6
aF8.3
aF7.0
aF5.3
aF8.0
aF7.8
aF6.5
aF6.7
aF8.7
aF7.6
aF7.2
aF6.3
aF6.7
aF5.3
aF8.0
aF6.1
aF2.2
aF8.1
aF5.8
aF7.6
aF5.0
aF6.3
aF7.1
aF7.5
aF7.1
aF4.8
aF8.4
aF5.8
aF5.1
aF6.3
aF7.0
aF6.3
aF6.8
aF7.4
aF7.2
aF6.6
aF6.7
aF6.4
aF6.4
aF7.2
aF6.0
aF5.9
aF6.1
aF6.5
aF8.1
aF7.8
aF6.3
aF7.8
aF7.6
aF6.8
aF5.5
aF6.4
aF8.5
aF5.5
aF7.6
aF6.8
aF7.7
aF7.3
aF6.2
aF6.5
aF6.5
aF7.0
aF8.0
aF7.3
aF6.6
aF6.6
aF6.3
aF7.4
aF4.1
aF4.8
aF6.5
aF6.2
aF7.5
aF6.5
aF6.7
aF6.5
aF5.2
aF7.1
aF6.2
aF6.4
aF8.0
aF7.0
aF7.1
aF7.1
aF7.5
aF4.4
aF6.1
aF7.3
aF7.1
aF5.6
aF5.0
aF6.4
aF7.1
aF6.7
aF6.0
aF6.1
aF9.4
aF5.4
aF6.0
aF5.2
aF6.9
aF7.7
aF7.4
aF6.7
aF5.8
aF5.6
aF5.4
aF7.0
aF6.5
aF6.5
aF8.0
aF7.7
aF5.8
aF6.6
aF5.9
aF7.8
aF7.0
aF6.9
aF7.8
aF6.0
aF7.7
aF5.7
aF8.2
aF4.1
aF5.8
aF6.6
aF5.8
aF7.1
aF6.5
aF6.5
aF7.3
aF7.7
aF7.1
aF4.1
aF5.7
aF7.9
aF7.8
aF4.7
aF6.4
aF7.0
aF5.9
aF6.0
aF7.8
aF6.3
aF6.2
aF6.4
aF3.8
aF5.5
aF6.3
aF6.2
aF5.7
aF7.2
aF7.1
aF5.6
aF7.1
aF7.6
aF6.4
aF7.0
aF5.2
aF4.9
aF7.3
aF7.1
aF5.9
aF7.0
aF6.2
aF6.9
aF6.1
aF7.3
aF6.2
aF7.6
aF7.1
aF6.7
aF6.2
aF8.0
aF6.2
aF7.7
aF7.0
aF2.8
aF6.2
aF7.3
aF7.1
aF7.1
aF6.4
aF7.1
aF7.5
aF3.5
aF6.6
aF8.0
aF7.0
aF5.2
aF5.2
aF7.6
aF6.0
aF5.3
aF6.5
aF7.8
aF6.8
aF5.9
aF7.1
aF5.3
aF7.0
aF8.2
aF8.3
aF6.1
aF8.5
aF6.5
aF5.7
aF8.1
aF7.8
aF6.0
aF6.7
aF6.8
aF7.2
aF5.0
aF2.3
aF6.7
aF6.6
aF7.9
aF5.9
aF7.4
aF7.0
aF4.3
aF6.5
aF4.9
aF5.9
aF6.6
aF5.4
aF6.7
aF7.1
aF4.6
aF7.9
aF7.0
aF7.0
aF5.8
aF7.4
aF4.4
aF5.8
aF7.6
aF6.9
aF5.5
aF7.3
aF8.3
aF7.4
aF6.3
aF6.4
aF7.2
aF6.3
aF6.7
aF7.1
aF6.3
aF6.5
aF8.9
aF6.2
aF6.9
aF4.9
aF7.3
aF5.4
aF5.5
aF5.6
aF8.1
aF5.9
aF6.8
aF7.1
aF5.8
aF5.5
aF4.9
aF5.5
aF6.2
aF5.9
aF6.0
aF6.0
aF7.5
aF6.4
aF7.4
aF6.1
aF7.1
aF7.0
aF6.7
aF6.6
aF6.3
aF6.7
aF8.0
aF7.2
aF7.3
aF7.1
aF6.2
aF7.7
aF7.3
aF6.1
aF6.0
aF4.1
aF7.7
aF3.3
aF6.1
aF6.2
aF7.4
aF6.4
aF6.1
aF6.9
aF7.0
aF7.6
aF4.6
aF6.5
aF4.1
aF6.2
aF4.9
aF7.6
aF6.5
aF7.8
aF7.3
aF7.8
aF6.6
aF7.3
aF6.6
aF6.5
aF7.3
aF7.2
aF5.8
aF5.9
aF6.5
aF6.4
aF6.3
aF6.6
aF5.9
aF7.7
aF5.7
aF6.7
aF6.5
aF6.3
aF6.7
aF6.8
aF6.4
aF6.1
aF7.5
aF7.4
aF5.5
aF6.3
aF6.4
aF4.7
aF6.3
aF4.9
aF5.1
aF3.5
aF6.6
aF6.8
aF5.6
aF6.7
aF7.1
aF6.4
aF6.4
aF5.5
aF4.7
aF7.5
aF5.7
aF4.4
aF7.6
aF6.1
aF7.6
aF7.4
aF4.5
aF7.7
aF7.4
aF6.5
aF6.3
aF6.6
aF7.3
aF7.8
aF6.5
aF4.0
aF6.3
aF6.3
aF7.9
aF7.2
aF8.2
aF6.2
aF6.4
aF5.8
aF7.1
aF6.6
aF6.8
aF7.7
aF7.8
aF7.4
aF7.9
aF5.9
aF6.3
aF6.5
aF6.8
aF5.6
aF5.8
aF7.2
aF7.0
aF8.0
aF7.5
aF7.4
aF8.0
aF7.6
aF5.7
aF7.6
aF7.0
aF5.4
aF6.2
aF6.8
aF7.6
aF5.7
aF8.0
aF6.7
aF5.5
aF7.1
aF6.0
aF6.5
aF5.6
aF5.8
aF6.0
aF8.5
aF7.8
aF6.9
aF8.2
aF5.7
aF6.2
aF4.5
aF7.2
aF5.8
aF4.6
aF6.9
aF6.3
aF5.8
aF4.8
aF6.2
aF5.8
aF5.5
aF5.8
aF6.4
aF7.4
aF5.5
aF5.9
aF6.5
aF7.3
aF5.7
aF7.4
aF6.3
aF6.4
aF6.4
aF7.6
aF7.5
aF6.2
aF5.8
aF7.1
aF6.8
aF6.8
aF7.2
aF6.9
aF8.8
aF7.6
aF7.3
aF5.1
aF6.2
aF5.7
aF7.3
aF6.3
aF7.4
aF6.7
aF3.1
aF7.1
aF8.2
aF6.7
aF6.2
aF6.8
aF7.9
aF4.6
aF7.3
aF6.4
aF7.4
aF7.2
aF5.9
aF6.1
aF6.5
aF4.3
aF5.0
aF6.6
aF6.5
aF7.2
aF8.2
aF6.9
aF5.9
aF5.2
aF5.4
aF6.6
aF5.5
aF6.5
aF7.5
aF6.5
aF7.0
aF5.1
aF7.5
aF6.3
aF3.8
aF6.0
aF6.4
aF6.3
aF4.5
aF6.5
aF6.5
a.